

Microchip MPLAB XC8 Assembler V2.50 build 20240725155939 
                                                                                               Sat Oct 26 04:02:29 2024

Microchip MPLAB XC8 C Compiler v2.50 (Free license) build 20240725155939 Og1 
     1                           	processor	18F4620
     2                           	fnconf	rparam,??,?,0
     3                           	pagewidth 120
     4                           	opt	flic
     5                           	psect	idataCOMRAM,global,class=CODE,space=0,delta=1,noexec
     6                           	psect	smallconst,global,reloc=2,class=SMALLCONST,space=0,delta=1,noexec
     7                           	psect	cinit,global,reloc=2,class=CODE,space=0,delta=1
     8                           	psect	bssCOMRAM,global,class=COMRAM,space=1,delta=1,lowdata,noexec
     9                           	psect	dataCOMRAM,global,class=COMRAM,space=1,delta=1,lowdata,noexec
    10                           	psect	cstackCOMRAM,global,class=COMRAM,space=1,delta=1,lowdata,noexec
    11                           	psect	text0,global,reloc=2,class=CODE,space=0,delta=1
    12                           	psect	intcode,global,reloc=2,class=CODE,space=0,delta=1
    13                           	psect	intcode_body,global,reloc=2,class=CODE,space=0,delta=1
    14                           	psect	text2,global,reloc=2,class=CODE,space=0,delta=1
    15                           	psect	text3,global,reloc=2,class=CODE,space=0,delta=1
    16                           	psect	text4,global,reloc=2,class=CODE,space=0,delta=1
    17                           	psect	text5,global,reloc=2,class=CODE,space=0,delta=1
    18                           	psect	text6,global,reloc=2,class=CODE,space=0,delta=1
    19                           	psect	text7,global,reloc=2,class=CODE,space=0,delta=1
    20                           	psect	intsave_regs,global,class=BIGRAM,space=1,delta=1,noexec
    21                           	psect	rparam,global,class=COMRAM,space=1,delta=1,noexec
    22                           	psect	temp,global,ovrld,common,class=COMRAM,space=1,delta=1,lowdata
    23                           	psect	config,global,abs,ovrld,class=CONFIG,space=4,delta=1,noexec
    24   000000                     
    25                           ; Generated 17/10/2023 GMT
    26                           ; 
    27                           ; Copyright © 2023, Microchip Technology Inc. and its subsidiaries ("Microchip")
    28                           ; All rights reserved.
    29                           ; 
    30                           ; This software is developed by Microchip Technology Inc. and its subsidiaries ("Microch
      +                          ip").
    31                           ; 
    32                           ; Redistribution and use in source and binary forms, with or without modification, are
    33                           ; permitted provided that the following conditions are met:
    34                           ; 
    35                           ;     1. Redistributions of source code must retain the above copyright notice, this lis
      +                          t of
    36                           ;        conditions and the following disclaimer.
    37                           ; 
    38                           ;     2. Redistributions in binary form must reproduce the above copyright notice, this 
      +                          list
    39                           ;        of conditions and the following disclaimer in the documentation and/or other
    40                           ;        materials provided with the distribution. Publication is not required when
    41                           ;        this file is used in an embedded application.
    42                           ; 
    43                           ;     3. Microchip's name may not be used to endorse or promote products derived from th
      +                          is
    44                           ;        software without specific prior written permission.
    45                           ; 
    46                           ; THIS SOFTWARE IS PROVIDED BY MICROCHIP "AS IS" AND ANY EXPRESS OR IMPLIED WARRANTIES,
    47                           ; INCLUDING, BUT NOT LIMITED TO, THE IMPLIED WARRANTIES OF MERCHANTABILITY AND FITNESS F
      +                          OR
    48                           ; PURPOSE ARE DISCLAIMED.  IN NO EVENT SHALL MICROCHIP BE LIABLE FOR ANY DIRECT, INDIREC
      +                          T,
    49                           ; INCIDENTAL, SPECIAL, EXEMPLARY, OR CONSEQUENTIAL DAMAGES (INCLUDING BUT NOT LIMITED TO
    50                           ; PROCUREMENT OF SUBSTITUTE GOODS OR SERVICES; LOSS OF USE, DATA OR PROFITS; OR BUSINESS
    51                           ; INTERRUPTION) HOWSOEVER CAUSED AND ON ANY THEORY OF LIABILITY, WHETHER IN CONTRACT, ST
      +                          RICT
    52                           ; LIABILITY, OR TORT (INCLUDING NEGLIGENCE OR OTHERWISE) ARISING IN ANY WAY OUT OF THE U
      +                          SE OF
    53                           ; THIS SOFTWARE, EVEN IF ADVISED OF THE POSSIBILITY OF SUCH DAMAGE.
    54                           ; 
    55                           ; 
    56                           ; Code-generator required, PIC18F4620 Definitions
    57                           ; 
    58                           ; SFR Addresses
    59   000FE0                     bsr             equ	4064
    60   000FE9                     fsr0            equ	4073
    61   000FEA                     fsr0h           equ	4074
    62   000FE9                     fsr0l           equ	4073
    63   000FE1                     fsr1            equ	4065
    64   000FE2                     fsr1h           equ	4066
    65   000FE1                     fsr1l           equ	4065
    66   000FD9                     fsr2            equ	4057
    67   000FDA                     fsr2h           equ	4058
    68   000FD9                     fsr2l           equ	4057
    69   000FEF                     indf0           equ	4079
    70   000FE7                     indf1           equ	4071
    71   000FDF                     indf2           equ	4063
    72   000FF2                     intcon          equ	4082
    73   000000                     nvmcon          equ	0
    74   000FF9                     pcl             equ	4089
    75   000FFA                     pclath          equ	4090
    76   000FFB                     pclatu          equ	4091
    77   000FEB                     plusw0          equ	4075
    78   000FE3                     plusw1          equ	4067
    79   000FDB                     plusw2          equ	4059
    80   000FED                     postdec0        equ	4077
    81   000FE5                     postdec1        equ	4069
    82   000FDD                     postdec2        equ	4061
    83   000FEE                     postinc0        equ	4078
    84   000FE6                     postinc1        equ	4070
    85   000FDE                     postinc2        equ	4062
    86   000FEC                     preinc0         equ	4076
    87   000FE4                     preinc1         equ	4068
    88   000FDC                     preinc2         equ	4060
    89   000FF3                     prod            equ	4083
    90   000FF4                     prodh           equ	4084
    91   000FF3                     prodl           equ	4083
    92   000FD8                     status          equ	4056
    93   000FF5                     tablat          equ	4085
    94   000FF6                     tblptr          equ	4086
    95   000FF7                     tblptrh         equ	4087
    96   000FF6                     tblptrl         equ	4086
    97   000FF8                     tblptru         equ	4088
    98   000FFD                     tosl            equ	4093
    99   000FE8                     wreg            equ	4072
   100   000F80                     PORTA           equ	3968	;# 
   101   000F81                     PORTB           equ	3969	;# 
   102   000F82                     PORTC           equ	3970	;# 
   103   000F83                     PORTD           equ	3971	;# 
   104   000F84                     PORTE           equ	3972	;# 
   105   000F89                     LATA            equ	3977	;# 
   106   000F8A                     LATB            equ	3978	;# 
   107   000F8B                     LATC            equ	3979	;# 
   108   000F8C                     LATD            equ	3980	;# 
   109   000F8D                     LATE            equ	3981	;# 
   110   000F92                     TRISA           equ	3986	;# 
   111   000F92                     DDRA            equ	3986	;# 
   112   000F93                     TRISB           equ	3987	;# 
   113   000F93                     DDRB            equ	3987	;# 
   114   000F94                     TRISC           equ	3988	;# 
   115   000F94                     DDRC            equ	3988	;# 
   116   000F95                     TRISD           equ	3989	;# 
   117   000F95                     DDRD            equ	3989	;# 
   118   000F96                     TRISE           equ	3990	;# 
   119   000F96                     DDRE            equ	3990	;# 
   120   000F9B                     OSCTUNE         equ	3995	;# 
   121   000F9D                     PIE1            equ	3997	;# 
   122   000F9E                     PIR1            equ	3998	;# 
   123   000F9F                     IPR1            equ	3999	;# 
   124   000FA0                     PIE2            equ	4000	;# 
   125   000FA1                     PIR2            equ	4001	;# 
   126   000FA2                     IPR2            equ	4002	;# 
   127   000FA6                     EECON1          equ	4006	;# 
   128   000FA7                     EECON2          equ	4007	;# 
   129   000FA8                     EEDATA          equ	4008	;# 
   130   000FA9                     EEADR           equ	4009	;# 
   131   000FAA                     EEADRH          equ	4010	;# 
   132   000FAB                     RCSTA           equ	4011	;# 
   133   000FAB                     RCSTA1          equ	4011	;# 
   134   000FAC                     TXSTA           equ	4012	;# 
   135   000FAC                     TXSTA1          equ	4012	;# 
   136   000FAD                     TXREG           equ	4013	;# 
   137   000FAD                     TXREG1          equ	4013	;# 
   138   000FAE                     RCREG           equ	4014	;# 
   139   000FAE                     RCREG1          equ	4014	;# 
   140   000FAF                     SPBRG           equ	4015	;# 
   141   000FAF                     SPBRG1          equ	4015	;# 
   142   000FB0                     SPBRGH          equ	4016	;# 
   143   000FB1                     T3CON           equ	4017	;# 
   144   000FB2                     TMR3            equ	4018	;# 
   145   000FB2                     TMR3L           equ	4018	;# 
   146   000FB3                     TMR3H           equ	4019	;# 
   147   000FB4                     CMCON           equ	4020	;# 
   148   000FB5                     CVRCON          equ	4021	;# 
   149   000FB6                     ECCP1AS         equ	4022	;# 
   150   000FB7                     PWM1CON         equ	4023	;# 
   151   000FB8                     BAUDCON         equ	4024	;# 
   152   000FB8                     BAUDCTL         equ	4024	;# 
   153   000FBA                     CCP2CON         equ	4026	;# 
   154   000FBB                     CCPR2           equ	4027	;# 
   155   000FBB                     CCPR2L          equ	4027	;# 
   156   000FBC                     CCPR2H          equ	4028	;# 
   157   000FBD                     CCP1CON         equ	4029	;# 
   158   000FBE                     CCPR1           equ	4030	;# 
   159   000FBE                     CCPR1L          equ	4030	;# 
   160   000FBF                     CCPR1H          equ	4031	;# 
   161   000FC0                     ADCON2          equ	4032	;# 
   162   000FC1                     ADCON1          equ	4033	;# 
   163   000FC2                     ADCON0          equ	4034	;# 
   164   000FC3                     ADRES           equ	4035	;# 
   165   000FC3                     ADRESL          equ	4035	;# 
   166   000FC4                     ADRESH          equ	4036	;# 
   167   000FC5                     SSPCON2         equ	4037	;# 
   168   000FC6                     SSPCON1         equ	4038	;# 
   169   000FC7                     SSPSTAT         equ	4039	;# 
   170   000FC8                     SSPADD          equ	4040	;# 
   171   000FC9                     SSPBUF          equ	4041	;# 
   172   000FCA                     T2CON           equ	4042	;# 
   173   000FCB                     PR2             equ	4043	;# 
   174   000FCB                     MEMCON          equ	4043	;# 
   175   000FCC                     TMR2            equ	4044	;# 
   176   000FCD                     T1CON           equ	4045	;# 
   177   000FCE                     TMR1            equ	4046	;# 
   178   000FCE                     TMR1L           equ	4046	;# 
   179   000FCF                     TMR1H           equ	4047	;# 
   180   000FD0                     RCON            equ	4048	;# 
   181   000FD1                     WDTCON          equ	4049	;# 
   182   000FD2                     HLVDCON         equ	4050	;# 
   183   000FD2                     LVDCON          equ	4050	;# 
   184   000FD3                     OSCCON          equ	4051	;# 
   185   000FD5                     T0CON           equ	4053	;# 
   186   000FD6                     TMR0            equ	4054	;# 
   187   000FD6                     TMR0L           equ	4054	;# 
   188   000FD7                     TMR0H           equ	4055	;# 
   189   000FD8                     STATUS          equ	4056	;# 
   190   000FD9                     FSR2            equ	4057	;# 
   191   000FD9                     FSR2L           equ	4057	;# 
   192   000FDA                     FSR2H           equ	4058	;# 
   193   000FDB                     PLUSW2          equ	4059	;# 
   194   000FDC                     PREINC2         equ	4060	;# 
   195   000FDD                     POSTDEC2        equ	4061	;# 
   196   000FDE                     POSTINC2        equ	4062	;# 
   197   000FDF                     INDF2           equ	4063	;# 
   198   000FE0                     BSR             equ	4064	;# 
   199   000FE1                     FSR1            equ	4065	;# 
   200   000FE1                     FSR1L           equ	4065	;# 
   201   000FE2                     FSR1H           equ	4066	;# 
   202   000FE3                     PLUSW1          equ	4067	;# 
   203   000FE4                     PREINC1         equ	4068	;# 
   204   000FE5                     POSTDEC1        equ	4069	;# 
   205   000FE6                     POSTINC1        equ	4070	;# 
   206   000FE7                     INDF1           equ	4071	;# 
   207   000FE8                     WREG            equ	4072	;# 
   208   000FE9                     FSR0            equ	4073	;# 
   209   000FE9                     FSR0L           equ	4073	;# 
   210   000FEA                     FSR0H           equ	4074	;# 
   211   000FEB                     PLUSW0          equ	4075	;# 
   212   000FEC                     PREINC0         equ	4076	;# 
   213   000FED                     POSTDEC0        equ	4077	;# 
   214   000FEE                     POSTINC0        equ	4078	;# 
   215   000FEF                     INDF0           equ	4079	;# 
   216   000FF0                     INTCON3         equ	4080	;# 
   217   000FF1                     INTCON2         equ	4081	;# 
   218   000FF2                     INTCON          equ	4082	;# 
   219   000FF3                     PROD            equ	4083	;# 
   220   000FF3                     PRODL           equ	4083	;# 
   221   000FF4                     PRODH           equ	4084	;# 
   222   000FF5                     TABLAT          equ	4085	;# 
   223   000FF6                     TBLPTR          equ	4086	;# 
   224   000FF6                     TBLPTRL         equ	4086	;# 
   225   000FF7                     TBLPTRH         equ	4087	;# 
   226   000FF8                     TBLPTRU         equ	4088	;# 
   227   000FF9                     PCLAT           equ	4089	;# 
   228   000FF9                     PC              equ	4089	;# 
   229   000FF9                     PCL             equ	4089	;# 
   230   000FFA                     PCLATH          equ	4090	;# 
   231   000FFB                     PCLATU          equ	4091	;# 
   232   000FFC                     STKPTR          equ	4092	;# 
   233   000FFD                     TOS             equ	4093	;# 
   234   000FFD                     TOSL            equ	4093	;# 
   235   000FFE                     TOSH            equ	4094	;# 
   236   000FFF                     TOSU            equ	4095	;# 
   237   000F80                     PORTA           equ	3968	;# 
   238   000F81                     PORTB           equ	3969	;# 
   239   000F82                     PORTC           equ	3970	;# 
   240   000F83                     PORTD           equ	3971	;# 
   241   000F84                     PORTE           equ	3972	;# 
   242   000F89                     LATA            equ	3977	;# 
   243   000F8A                     LATB            equ	3978	;# 
   244   000F8B                     LATC            equ	3979	;# 
   245   000F8C                     LATD            equ	3980	;# 
   246   000F8D                     LATE            equ	3981	;# 
   247   000F92                     TRISA           equ	3986	;# 
   248   000F92                     DDRA            equ	3986	;# 
   249   000F93                     TRISB           equ	3987	;# 
   250   000F93                     DDRB            equ	3987	;# 
   251   000F94                     TRISC           equ	3988	;# 
   252   000F94                     DDRC            equ	3988	;# 
   253   000F95                     TRISD           equ	3989	;# 
   254   000F95                     DDRD            equ	3989	;# 
   255   000F96                     TRISE           equ	3990	;# 
   256   000F96                     DDRE            equ	3990	;# 
   257   000F9B                     OSCTUNE         equ	3995	;# 
   258   000F9D                     PIE1            equ	3997	;# 
   259   000F9E                     PIR1            equ	3998	;# 
   260   000F9F                     IPR1            equ	3999	;# 
   261   000FA0                     PIE2            equ	4000	;# 
   262   000FA1                     PIR2            equ	4001	;# 
   263   000FA2                     IPR2            equ	4002	;# 
   264   000FA6                     EECON1          equ	4006	;# 
   265   000FA7                     EECON2          equ	4007	;# 
   266   000FA8                     EEDATA          equ	4008	;# 
   267   000FA9                     EEADR           equ	4009	;# 
   268   000FAA                     EEADRH          equ	4010	;# 
   269   000FAB                     RCSTA           equ	4011	;# 
   270   000FAB                     RCSTA1          equ	4011	;# 
   271   000FAC                     TXSTA           equ	4012	;# 
   272   000FAC                     TXSTA1          equ	4012	;# 
   273   000FAD                     TXREG           equ	4013	;# 
   274   000FAD                     TXREG1          equ	4013	;# 
   275   000FAE                     RCREG           equ	4014	;# 
   276   000FAE                     RCREG1          equ	4014	;# 
   277   000FAF                     SPBRG           equ	4015	;# 
   278   000FAF                     SPBRG1          equ	4015	;# 
   279   000FB0                     SPBRGH          equ	4016	;# 
   280   000FB1                     T3CON           equ	4017	;# 
   281   000FB2                     TMR3            equ	4018	;# 
   282   000FB2                     TMR3L           equ	4018	;# 
   283   000FB3                     TMR3H           equ	4019	;# 
   284   000FB4                     CMCON           equ	4020	;# 
   285   000FB5                     CVRCON          equ	4021	;# 
   286   000FB6                     ECCP1AS         equ	4022	;# 
   287   000FB7                     PWM1CON         equ	4023	;# 
   288   000FB8                     BAUDCON         equ	4024	;# 
   289   000FB8                     BAUDCTL         equ	4024	;# 
   290   000FBA                     CCP2CON         equ	4026	;# 
   291   000FBB                     CCPR2           equ	4027	;# 
   292   000FBB                     CCPR2L          equ	4027	;# 
   293   000FBC                     CCPR2H          equ	4028	;# 
   294   000FBD                     CCP1CON         equ	4029	;# 
   295   000FBE                     CCPR1           equ	4030	;# 
   296   000FBE                     CCPR1L          equ	4030	;# 
   297   000FBF                     CCPR1H          equ	4031	;# 
   298   000FC0                     ADCON2          equ	4032	;# 
   299   000FC1                     ADCON1          equ	4033	;# 
   300   000FC2                     ADCON0          equ	4034	;# 
   301   000FC3                     ADRES           equ	4035	;# 
   302   000FC3                     ADRESL          equ	4035	;# 
   303   000FC4                     ADRESH          equ	4036	;# 
   304   000FC5                     SSPCON2         equ	4037	;# 
   305   000FC6                     SSPCON1         equ	4038	;# 
   306   000FC7                     SSPSTAT         equ	4039	;# 
   307   000FC8                     SSPADD          equ	4040	;# 
   308   000FC9                     SSPBUF          equ	4041	;# 
   309   000FCA                     T2CON           equ	4042	;# 
   310   000FCB                     PR2             equ	4043	;# 
   311   000FCB                     MEMCON          equ	4043	;# 
   312   000FCC                     TMR2            equ	4044	;# 
   313   000FCD                     T1CON           equ	4045	;# 
   314   000FCE                     TMR1            equ	4046	;# 
   315   000FCE                     TMR1L           equ	4046	;# 
   316   000FCF                     TMR1H           equ	4047	;# 
   317   000FD0                     RCON            equ	4048	;# 
   318   000FD1                     WDTCON          equ	4049	;# 
   319   000FD2                     HLVDCON         equ	4050	;# 
   320   000FD2                     LVDCON          equ	4050	;# 
   321   000FD3                     OSCCON          equ	4051	;# 
   322   000FD5                     T0CON           equ	4053	;# 
   323   000FD6                     TMR0            equ	4054	;# 
   324   000FD6                     TMR0L           equ	4054	;# 
   325   000FD7                     TMR0H           equ	4055	;# 
   326   000FD8                     STATUS          equ	4056	;# 
   327   000FD9                     FSR2            equ	4057	;# 
   328   000FD9                     FSR2L           equ	4057	;# 
   329   000FDA                     FSR2H           equ	4058	;# 
   330   000FDB                     PLUSW2          equ	4059	;# 
   331   000FDC                     PREINC2         equ	4060	;# 
   332   000FDD                     POSTDEC2        equ	4061	;# 
   333   000FDE                     POSTINC2        equ	4062	;# 
   334   000FDF                     INDF2           equ	4063	;# 
   335   000FE0                     BSR             equ	4064	;# 
   336   000FE1                     FSR1            equ	4065	;# 
   337   000FE1                     FSR1L           equ	4065	;# 
   338   000FE2                     FSR1H           equ	4066	;# 
   339   000FE3                     PLUSW1          equ	4067	;# 
   340   000FE4                     PREINC1         equ	4068	;# 
   341   000FE5                     POSTDEC1        equ	4069	;# 
   342   000FE6                     POSTINC1        equ	4070	;# 
   343   000FE7                     INDF1           equ	4071	;# 
   344   000FE8                     WREG            equ	4072	;# 
   345   000FE9                     FSR0            equ	4073	;# 
   346   000FE9                     FSR0L           equ	4073	;# 
   347   000FEA                     FSR0H           equ	4074	;# 
   348   000FEB                     PLUSW0          equ	4075	;# 
   349   000FEC                     PREINC0         equ	4076	;# 
   350   000FED                     POSTDEC0        equ	4077	;# 
   351   000FEE                     POSTINC0        equ	4078	;# 
   352   000FEF                     INDF0           equ	4079	;# 
   353   000FF0                     INTCON3         equ	4080	;# 
   354   000FF1                     INTCON2         equ	4081	;# 
   355   000FF2                     INTCON          equ	4082	;# 
   356   000FF3                     PROD            equ	4083	;# 
   357   000FF3                     PRODL           equ	4083	;# 
   358   000FF4                     PRODH           equ	4084	;# 
   359   000FF5                     TABLAT          equ	4085	;# 
   360   000FF6                     TBLPTR          equ	4086	;# 
   361   000FF6                     TBLPTRL         equ	4086	;# 
   362   000FF7                     TBLPTRH         equ	4087	;# 
   363   000FF8                     TBLPTRU         equ	4088	;# 
   364   000FF9                     PCLAT           equ	4089	;# 
   365   000FF9                     PC              equ	4089	;# 
   366   000FF9                     PCL             equ	4089	;# 
   367   000FFA                     PCLATH          equ	4090	;# 
   368   000FFB                     PCLATU          equ	4091	;# 
   369   000FFC                     STKPTR          equ	4092	;# 
   370   000FFD                     TOS             equ	4093	;# 
   371   000FFD                     TOSL            equ	4093	;# 
   372   000FFE                     TOSH            equ	4094	;# 
   373   000FFF                     TOSU            equ	4095	;# 
   374   000F80                     PORTA           equ	3968	;# 
   375   000F81                     PORTB           equ	3969	;# 
   376   000F82                     PORTC           equ	3970	;# 
   377   000F83                     PORTD           equ	3971	;# 
   378   000F84                     PORTE           equ	3972	;# 
   379   000F89                     LATA            equ	3977	;# 
   380   000F8A                     LATB            equ	3978	;# 
   381   000F8B                     LATC            equ	3979	;# 
   382   000F8C                     LATD            equ	3980	;# 
   383   000F8D                     LATE            equ	3981	;# 
   384   000F92                     TRISA           equ	3986	;# 
   385   000F92                     DDRA            equ	3986	;# 
   386   000F93                     TRISB           equ	3987	;# 
   387   000F93                     DDRB            equ	3987	;# 
   388   000F94                     TRISC           equ	3988	;# 
   389   000F94                     DDRC            equ	3988	;# 
   390   000F95                     TRISD           equ	3989	;# 
   391   000F95                     DDRD            equ	3989	;# 
   392   000F96                     TRISE           equ	3990	;# 
   393   000F96                     DDRE            equ	3990	;# 
   394   000F9B                     OSCTUNE         equ	3995	;# 
   395   000F9D                     PIE1            equ	3997	;# 
   396   000F9E                     PIR1            equ	3998	;# 
   397   000F9F                     IPR1            equ	3999	;# 
   398   000FA0                     PIE2            equ	4000	;# 
   399   000FA1                     PIR2            equ	4001	;# 
   400   000FA2                     IPR2            equ	4002	;# 
   401   000FA6                     EECON1          equ	4006	;# 
   402   000FA7                     EECON2          equ	4007	;# 
   403   000FA8                     EEDATA          equ	4008	;# 
   404   000FA9                     EEADR           equ	4009	;# 
   405   000FAA                     EEADRH          equ	4010	;# 
   406   000FAB                     RCSTA           equ	4011	;# 
   407   000FAB                     RCSTA1          equ	4011	;# 
   408   000FAC                     TXSTA           equ	4012	;# 
   409   000FAC                     TXSTA1          equ	4012	;# 
   410   000FAD                     TXREG           equ	4013	;# 
   411   000FAD                     TXREG1          equ	4013	;# 
   412   000FAE                     RCREG           equ	4014	;# 
   413   000FAE                     RCREG1          equ	4014	;# 
   414   000FAF                     SPBRG           equ	4015	;# 
   415   000FAF                     SPBRG1          equ	4015	;# 
   416   000FB0                     SPBRGH          equ	4016	;# 
   417   000FB1                     T3CON           equ	4017	;# 
   418   000FB2                     TMR3            equ	4018	;# 
   419   000FB2                     TMR3L           equ	4018	;# 
   420   000FB3                     TMR3H           equ	4019	;# 
   421   000FB4                     CMCON           equ	4020	;# 
   422   000FB5                     CVRCON          equ	4021	;# 
   423   000FB6                     ECCP1AS         equ	4022	;# 
   424   000FB7                     PWM1CON         equ	4023	;# 
   425   000FB8                     BAUDCON         equ	4024	;# 
   426   000FB8                     BAUDCTL         equ	4024	;# 
   427   000FBA                     CCP2CON         equ	4026	;# 
   428   000FBB                     CCPR2           equ	4027	;# 
   429   000FBB                     CCPR2L          equ	4027	;# 
   430   000FBC                     CCPR2H          equ	4028	;# 
   431   000FBD                     CCP1CON         equ	4029	;# 
   432   000FBE                     CCPR1           equ	4030	;# 
   433   000FBE                     CCPR1L          equ	4030	;# 
   434   000FBF                     CCPR1H          equ	4031	;# 
   435   000FC0                     ADCON2          equ	4032	;# 
   436   000FC1                     ADCON1          equ	4033	;# 
   437   000FC2                     ADCON0          equ	4034	;# 
   438   000FC3                     ADRES           equ	4035	;# 
   439   000FC3                     ADRESL          equ	4035	;# 
   440   000FC4                     ADRESH          equ	4036	;# 
   441   000FC5                     SSPCON2         equ	4037	;# 
   442   000FC6                     SSPCON1         equ	4038	;# 
   443   000FC7                     SSPSTAT         equ	4039	;# 
   444   000FC8                     SSPADD          equ	4040	;# 
   445   000FC9                     SSPBUF          equ	4041	;# 
   446   000FCA                     T2CON           equ	4042	;# 
   447   000FCB                     PR2             equ	4043	;# 
   448   000FCB                     MEMCON          equ	4043	;# 
   449   000FCC                     TMR2            equ	4044	;# 
   450   000FCD                     T1CON           equ	4045	;# 
   451   000FCE                     TMR1            equ	4046	;# 
   452   000FCE                     TMR1L           equ	4046	;# 
   453   000FCF                     TMR1H           equ	4047	;# 
   454   000FD0                     RCON            equ	4048	;# 
   455   000FD1                     WDTCON          equ	4049	;# 
   456   000FD2                     HLVDCON         equ	4050	;# 
   457   000FD2                     LVDCON          equ	4050	;# 
   458   000FD3                     OSCCON          equ	4051	;# 
   459   000FD5                     T0CON           equ	4053	;# 
   460   000FD6                     TMR0            equ	4054	;# 
   461   000FD6                     TMR0L           equ	4054	;# 
   462   000FD7                     TMR0H           equ	4055	;# 
   463   000FD8                     STATUS          equ	4056	;# 
   464   000FD9                     FSR2            equ	4057	;# 
   465   000FD9                     FSR2L           equ	4057	;# 
   466   000FDA                     FSR2H           equ	4058	;# 
   467   000FDB                     PLUSW2          equ	4059	;# 
   468   000FDC                     PREINC2         equ	4060	;# 
   469   000FDD                     POSTDEC2        equ	4061	;# 
   470   000FDE                     POSTINC2        equ	4062	;# 
   471   000FDF                     INDF2           equ	4063	;# 
   472   000FE0                     BSR             equ	4064	;# 
   473   000FE1                     FSR1            equ	4065	;# 
   474   000FE1                     FSR1L           equ	4065	;# 
   475   000FE2                     FSR1H           equ	4066	;# 
   476   000FE3                     PLUSW1          equ	4067	;# 
   477   000FE4                     PREINC1         equ	4068	;# 
   478   000FE5                     POSTDEC1        equ	4069	;# 
   479   000FE6                     POSTINC1        equ	4070	;# 
   480   000FE7                     INDF1           equ	4071	;# 
   481   000FE8                     WREG            equ	4072	;# 
   482   000FE9                     FSR0            equ	4073	;# 
   483   000FE9                     FSR0L           equ	4073	;# 
   484   000FEA                     FSR0H           equ	4074	;# 
   485   000FEB                     PLUSW0          equ	4075	;# 
   486   000FEC                     PREINC0         equ	4076	;# 
   487   000FED                     POSTDEC0        equ	4077	;# 
   488   000FEE                     POSTINC0        equ	4078	;# 
   489   000FEF                     INDF0           equ	4079	;# 
   490   000FF0                     INTCON3         equ	4080	;# 
   491   000FF1                     INTCON2         equ	4081	;# 
   492   000FF2                     INTCON          equ	4082	;# 
   493   000FF3                     PROD            equ	4083	;# 
   494   000FF3                     PRODL           equ	4083	;# 
   495   000FF4                     PRODH           equ	4084	;# 
   496   000FF5                     TABLAT          equ	4085	;# 
   497   000FF6                     TBLPTR          equ	4086	;# 
   498   000FF6                     TBLPTRL         equ	4086	;# 
   499   000FF7                     TBLPTRH         equ	4087	;# 
   500   000FF8                     TBLPTRU         equ	4088	;# 
   501   000FF9                     PCLAT           equ	4089	;# 
   502   000FF9                     PC              equ	4089	;# 
   503   000FF9                     PCL             equ	4089	;# 
   504   000FFA                     PCLATH          equ	4090	;# 
   505   000FFB                     PCLATU          equ	4091	;# 
   506   000FFC                     STKPTR          equ	4092	;# 
   507   000FFD                     TOS             equ	4093	;# 
   508   000FFD                     TOSL            equ	4093	;# 
   509   000FFE                     TOSH            equ	4094	;# 
   510   000FFF                     TOSU            equ	4095	;# 
   511   000F80                     PORTA           equ	3968	;# 
   512   000F81                     PORTB           equ	3969	;# 
   513   000F82                     PORTC           equ	3970	;# 
   514   000F83                     PORTD           equ	3971	;# 
   515   000F84                     PORTE           equ	3972	;# 
   516   000F89                     LATA            equ	3977	;# 
   517   000F8A                     LATB            equ	3978	;# 
   518   000F8B                     LATC            equ	3979	;# 
   519   000F8C                     LATD            equ	3980	;# 
   520   000F8D                     LATE            equ	3981	;# 
   521   000F92                     TRISA           equ	3986	;# 
   522   000F92                     DDRA            equ	3986	;# 
   523   000F93                     TRISB           equ	3987	;# 
   524   000F93                     DDRB            equ	3987	;# 
   525   000F94                     TRISC           equ	3988	;# 
   526   000F94                     DDRC            equ	3988	;# 
   527   000F95                     TRISD           equ	3989	;# 
   528   000F95                     DDRD            equ	3989	;# 
   529   000F96                     TRISE           equ	3990	;# 
   530   000F96                     DDRE            equ	3990	;# 
   531   000F9B                     OSCTUNE         equ	3995	;# 
   532   000F9D                     PIE1            equ	3997	;# 
   533   000F9E                     PIR1            equ	3998	;# 
   534   000F9F                     IPR1            equ	3999	;# 
   535   000FA0                     PIE2            equ	4000	;# 
   536   000FA1                     PIR2            equ	4001	;# 
   537   000FA2                     IPR2            equ	4002	;# 
   538   000FA6                     EECON1          equ	4006	;# 
   539   000FA7                     EECON2          equ	4007	;# 
   540   000FA8                     EEDATA          equ	4008	;# 
   541   000FA9                     EEADR           equ	4009	;# 
   542   000FAA                     EEADRH          equ	4010	;# 
   543   000FAB                     RCSTA           equ	4011	;# 
   544   000FAB                     RCSTA1          equ	4011	;# 
   545   000FAC                     TXSTA           equ	4012	;# 
   546   000FAC                     TXSTA1          equ	4012	;# 
   547   000FAD                     TXREG           equ	4013	;# 
   548   000FAD                     TXREG1          equ	4013	;# 
   549   000FAE                     RCREG           equ	4014	;# 
   550   000FAE                     RCREG1          equ	4014	;# 
   551   000FAF                     SPBRG           equ	4015	;# 
   552   000FAF                     SPBRG1          equ	4015	;# 
   553   000FB0                     SPBRGH          equ	4016	;# 
   554   000FB1                     T3CON           equ	4017	;# 
   555   000FB2                     TMR3            equ	4018	;# 
   556   000FB2                     TMR3L           equ	4018	;# 
   557   000FB3                     TMR3H           equ	4019	;# 
   558   000FB4                     CMCON           equ	4020	;# 
   559   000FB5                     CVRCON          equ	4021	;# 
   560   000FB6                     ECCP1AS         equ	4022	;# 
   561   000FB7                     PWM1CON         equ	4023	;# 
   562   000FB8                     BAUDCON         equ	4024	;# 
   563   000FB8                     BAUDCTL         equ	4024	;# 
   564   000FBA                     CCP2CON         equ	4026	;# 
   565   000FBB                     CCPR2           equ	4027	;# 
   566   000FBB                     CCPR2L          equ	4027	;# 
   567   000FBC                     CCPR2H          equ	4028	;# 
   568   000FBD                     CCP1CON         equ	4029	;# 
   569   000FBE                     CCPR1           equ	4030	;# 
   570   000FBE                     CCPR1L          equ	4030	;# 
   571   000FBF                     CCPR1H          equ	4031	;# 
   572   000FC0                     ADCON2          equ	4032	;# 
   573   000FC1                     ADCON1          equ	4033	;# 
   574   000FC2                     ADCON0          equ	4034	;# 
   575   000FC3                     ADRES           equ	4035	;# 
   576   000FC3                     ADRESL          equ	4035	;# 
   577   000FC4                     ADRESH          equ	4036	;# 
   578   000FC5                     SSPCON2         equ	4037	;# 
   579   000FC6                     SSPCON1         equ	4038	;# 
   580   000FC7                     SSPSTAT         equ	4039	;# 
   581   000FC8                     SSPADD          equ	4040	;# 
   582   000FC9                     SSPBUF          equ	4041	;# 
   583   000FCA                     T2CON           equ	4042	;# 
   584   000FCB                     PR2             equ	4043	;# 
   585   000FCB                     MEMCON          equ	4043	;# 
   586   000FCC                     TMR2            equ	4044	;# 
   587   000FCD                     T1CON           equ	4045	;# 
   588   000FCE                     TMR1            equ	4046	;# 
   589   000FCE                     TMR1L           equ	4046	;# 
   590   000FCF                     TMR1H           equ	4047	;# 
   591   000FD0                     RCON            equ	4048	;# 
   592   000FD1                     WDTCON          equ	4049	;# 
   593   000FD2                     HLVDCON         equ	4050	;# 
   594   000FD2                     LVDCON          equ	4050	;# 
   595   000FD3                     OSCCON          equ	4051	;# 
   596   000FD5                     T0CON           equ	4053	;# 
   597   000FD6                     TMR0            equ	4054	;# 
   598   000FD6                     TMR0L           equ	4054	;# 
   599   000FD7                     TMR0H           equ	4055	;# 
   600   000FD8                     STATUS          equ	4056	;# 
   601   000FD9                     FSR2            equ	4057	;# 
   602   000FD9                     FSR2L           equ	4057	;# 
   603   000FDA                     FSR2H           equ	4058	;# 
   604   000FDB                     PLUSW2          equ	4059	;# 
   605   000FDC                     PREINC2         equ	4060	;# 
   606   000FDD                     POSTDEC2        equ	4061	;# 
   607   000FDE                     POSTINC2        equ	4062	;# 
   608   000FDF                     INDF2           equ	4063	;# 
   609   000FE0                     BSR             equ	4064	;# 
   610   000FE1                     FSR1            equ	4065	;# 
   611   000FE1                     FSR1L           equ	4065	;# 
   612   000FE2                     FSR1H           equ	4066	;# 
   613   000FE3                     PLUSW1          equ	4067	;# 
   614   000FE4                     PREINC1         equ	4068	;# 
   615   000FE5                     POSTDEC1        equ	4069	;# 
   616   000FE6                     POSTINC1        equ	4070	;# 
   617   000FE7                     INDF1           equ	4071	;# 
   618   000FE8                     WREG            equ	4072	;# 
   619   000FE9                     FSR0            equ	4073	;# 
   620   000FE9                     FSR0L           equ	4073	;# 
   621   000FEA                     FSR0H           equ	4074	;# 
   622   000FEB                     PLUSW0          equ	4075	;# 
   623   000FEC                     PREINC0         equ	4076	;# 
   624   000FED                     POSTDEC0        equ	4077	;# 
   625   000FEE                     POSTINC0        equ	4078	;# 
   626   000FEF                     INDF0           equ	4079	;# 
   627   000FF0                     INTCON3         equ	4080	;# 
   628   000FF1                     INTCON2         equ	4081	;# 
   629   000FF2                     INTCON          equ	4082	;# 
   630   000FF3                     PROD            equ	4083	;# 
   631   000FF3                     PRODL           equ	4083	;# 
   632   000FF4                     PRODH           equ	4084	;# 
   633   000FF5                     TABLAT          equ	4085	;# 
   634   000FF6                     TBLPTR          equ	4086	;# 
   635   000FF6                     TBLPTRL         equ	4086	;# 
   636   000FF7                     TBLPTRH         equ	4087	;# 
   637   000FF8                     TBLPTRU         equ	4088	;# 
   638   000FF9                     PCLAT           equ	4089	;# 
   639   000FF9                     PC              equ	4089	;# 
   640   000FF9                     PCL             equ	4089	;# 
   641   000FFA                     PCLATH          equ	4090	;# 
   642   000FFB                     PCLATU          equ	4091	;# 
   643   000FFC                     STKPTR          equ	4092	;# 
   644   000FFD                     TOS             equ	4093	;# 
   645   000FFD                     TOSL            equ	4093	;# 
   646   000FFE                     TOSH            equ	4094	;# 
   647   000FFF                     TOSU            equ	4095	;# 
   648   000F80                     PORTA           equ	3968	;# 
   649   000F81                     PORTB           equ	3969	;# 
   650   000F82                     PORTC           equ	3970	;# 
   651   000F83                     PORTD           equ	3971	;# 
   652   000F84                     PORTE           equ	3972	;# 
   653   000F89                     LATA            equ	3977	;# 
   654   000F8A                     LATB            equ	3978	;# 
   655   000F8B                     LATC            equ	3979	;# 
   656   000F8C                     LATD            equ	3980	;# 
   657   000F8D                     LATE            equ	3981	;# 
   658   000F92                     TRISA           equ	3986	;# 
   659   000F92                     DDRA            equ	3986	;# 
   660   000F93                     TRISB           equ	3987	;# 
   661   000F93                     DDRB            equ	3987	;# 
   662   000F94                     TRISC           equ	3988	;# 
   663   000F94                     DDRC            equ	3988	;# 
   664   000F95                     TRISD           equ	3989	;# 
   665   000F95                     DDRD            equ	3989	;# 
   666   000F96                     TRISE           equ	3990	;# 
   667   000F96                     DDRE            equ	3990	;# 
   668   000F9B                     OSCTUNE         equ	3995	;# 
   669   000F9D                     PIE1            equ	3997	;# 
   670   000F9E                     PIR1            equ	3998	;# 
   671   000F9F                     IPR1            equ	3999	;# 
   672   000FA0                     PIE2            equ	4000	;# 
   673   000FA1                     PIR2            equ	4001	;# 
   674   000FA2                     IPR2            equ	4002	;# 
   675   000FA6                     EECON1          equ	4006	;# 
   676   000FA7                     EECON2          equ	4007	;# 
   677   000FA8                     EEDATA          equ	4008	;# 
   678   000FA9                     EEADR           equ	4009	;# 
   679   000FAA                     EEADRH          equ	4010	;# 
   680   000FAB                     RCSTA           equ	4011	;# 
   681   000FAB                     RCSTA1          equ	4011	;# 
   682   000FAC                     TXSTA           equ	4012	;# 
   683   000FAC                     TXSTA1          equ	4012	;# 
   684   000FAD                     TXREG           equ	4013	;# 
   685   000FAD                     TXREG1          equ	4013	;# 
   686   000FAE                     RCREG           equ	4014	;# 
   687   000FAE                     RCREG1          equ	4014	;# 
   688   000FAF                     SPBRG           equ	4015	;# 
   689   000FAF                     SPBRG1          equ	4015	;# 
   690   000FB0                     SPBRGH          equ	4016	;# 
   691   000FB1                     T3CON           equ	4017	;# 
   692   000FB2                     TMR3            equ	4018	;# 
   693   000FB2                     TMR3L           equ	4018	;# 
   694   000FB3                     TMR3H           equ	4019	;# 
   695   000FB4                     CMCON           equ	4020	;# 
   696   000FB5                     CVRCON          equ	4021	;# 
   697   000FB6                     ECCP1AS         equ	4022	;# 
   698   000FB7                     PWM1CON         equ	4023	;# 
   699   000FB8                     BAUDCON         equ	4024	;# 
   700   000FB8                     BAUDCTL         equ	4024	;# 
   701   000FBA                     CCP2CON         equ	4026	;# 
   702   000FBB                     CCPR2           equ	4027	;# 
   703   000FBB                     CCPR2L          equ	4027	;# 
   704   000FBC                     CCPR2H          equ	4028	;# 
   705   000FBD                     CCP1CON         equ	4029	;# 
   706   000FBE                     CCPR1           equ	4030	;# 
   707   000FBE                     CCPR1L          equ	4030	;# 
   708   000FBF                     CCPR1H          equ	4031	;# 
   709   000FC0                     ADCON2          equ	4032	;# 
   710   000FC1                     ADCON1          equ	4033	;# 
   711   000FC2                     ADCON0          equ	4034	;# 
   712   000FC3                     ADRES           equ	4035	;# 
   713   000FC3                     ADRESL          equ	4035	;# 
   714   000FC4                     ADRESH          equ	4036	;# 
   715   000FC5                     SSPCON2         equ	4037	;# 
   716   000FC6                     SSPCON1         equ	4038	;# 
   717   000FC7                     SSPSTAT         equ	4039	;# 
   718   000FC8                     SSPADD          equ	4040	;# 
   719   000FC9                     SSPBUF          equ	4041	;# 
   720   000FCA                     T2CON           equ	4042	;# 
   721   000FCB                     PR2             equ	4043	;# 
   722   000FCB                     MEMCON          equ	4043	;# 
   723   000FCC                     TMR2            equ	4044	;# 
   724   000FCD                     T1CON           equ	4045	;# 
   725   000FCE                     TMR1            equ	4046	;# 
   726   000FCE                     TMR1L           equ	4046	;# 
   727   000FCF                     TMR1H           equ	4047	;# 
   728   000FD0                     RCON            equ	4048	;# 
   729   000FD1                     WDTCON          equ	4049	;# 
   730   000FD2                     HLVDCON         equ	4050	;# 
   731   000FD2                     LVDCON          equ	4050	;# 
   732   000FD3                     OSCCON          equ	4051	;# 
   733   000FD5                     T0CON           equ	4053	;# 
   734   000FD6                     TMR0            equ	4054	;# 
   735   000FD6                     TMR0L           equ	4054	;# 
   736   000FD7                     TMR0H           equ	4055	;# 
   737   000FD8                     STATUS          equ	4056	;# 
   738   000FD9                     FSR2            equ	4057	;# 
   739   000FD9                     FSR2L           equ	4057	;# 
   740   000FDA                     FSR2H           equ	4058	;# 
   741   000FDB                     PLUSW2          equ	4059	;# 
   742   000FDC                     PREINC2         equ	4060	;# 
   743   000FDD                     POSTDEC2        equ	4061	;# 
   744   000FDE                     POSTINC2        equ	4062	;# 
   745   000FDF                     INDF2           equ	4063	;# 
   746   000FE0                     BSR             equ	4064	;# 
   747   000FE1                     FSR1            equ	4065	;# 
   748   000FE1                     FSR1L           equ	4065	;# 
   749   000FE2                     FSR1H           equ	4066	;# 
   750   000FE3                     PLUSW1          equ	4067	;# 
   751   000FE4                     PREINC1         equ	4068	;# 
   752   000FE5                     POSTDEC1        equ	4069	;# 
   753   000FE6                     POSTINC1        equ	4070	;# 
   754   000FE7                     INDF1           equ	4071	;# 
   755   000FE8                     WREG            equ	4072	;# 
   756   000FE9                     FSR0            equ	4073	;# 
   757   000FE9                     FSR0L           equ	4073	;# 
   758   000FEA                     FSR0H           equ	4074	;# 
   759   000FEB                     PLUSW0          equ	4075	;# 
   760   000FEC                     PREINC0         equ	4076	;# 
   761   000FED                     POSTDEC0        equ	4077	;# 
   762   000FEE                     POSTINC0        equ	4078	;# 
   763   000FEF                     INDF0           equ	4079	;# 
   764   000FF0                     INTCON3         equ	4080	;# 
   765   000FF1                     INTCON2         equ	4081	;# 
   766   000FF2                     INTCON          equ	4082	;# 
   767   000FF3                     PROD            equ	4083	;# 
   768   000FF3                     PRODL           equ	4083	;# 
   769   000FF4                     PRODH           equ	4084	;# 
   770   000FF5                     TABLAT          equ	4085	;# 
   771   000FF6                     TBLPTR          equ	4086	;# 
   772   000FF6                     TBLPTRL         equ	4086	;# 
   773   000FF7                     TBLPTRH         equ	4087	;# 
   774   000FF8                     TBLPTRU         equ	4088	;# 
   775   000FF9                     PCLAT           equ	4089	;# 
   776   000FF9                     PC              equ	4089	;# 
   777   000FF9                     PCL             equ	4089	;# 
   778   000FFA                     PCLATH          equ	4090	;# 
   779   000FFB                     PCLATU          equ	4091	;# 
   780   000FFC                     STKPTR          equ	4092	;# 
   781   000FFD                     TOS             equ	4093	;# 
   782   000FFD                     TOSL            equ	4093	;# 
   783   000FFE                     TOSH            equ	4094	;# 
   784   000FFF                     TOSU            equ	4095	;# 
   785   000F80                     PORTA           equ	3968	;# 
   786   000F81                     PORTB           equ	3969	;# 
   787   000F82                     PORTC           equ	3970	;# 
   788   000F83                     PORTD           equ	3971	;# 
   789   000F84                     PORTE           equ	3972	;# 
   790   000F89                     LATA            equ	3977	;# 
   791   000F8A                     LATB            equ	3978	;# 
   792   000F8B                     LATC            equ	3979	;# 
   793   000F8C                     LATD            equ	3980	;# 
   794   000F8D                     LATE            equ	3981	;# 
   795   000F92                     TRISA           equ	3986	;# 
   796   000F92                     DDRA            equ	3986	;# 
   797   000F93                     TRISB           equ	3987	;# 
   798   000F93                     DDRB            equ	3987	;# 
   799   000F94                     TRISC           equ	3988	;# 
   800   000F94                     DDRC            equ	3988	;# 
   801   000F95                     TRISD           equ	3989	;# 
   802   000F95                     DDRD            equ	3989	;# 
   803   000F96                     TRISE           equ	3990	;# 
   804   000F96                     DDRE            equ	3990	;# 
   805   000F9B                     OSCTUNE         equ	3995	;# 
   806   000F9D                     PIE1            equ	3997	;# 
   807   000F9E                     PIR1            equ	3998	;# 
   808   000F9F                     IPR1            equ	3999	;# 
   809   000FA0                     PIE2            equ	4000	;# 
   810   000FA1                     PIR2            equ	4001	;# 
   811   000FA2                     IPR2            equ	4002	;# 
   812   000FA6                     EECON1          equ	4006	;# 
   813   000FA7                     EECON2          equ	4007	;# 
   814   000FA8                     EEDATA          equ	4008	;# 
   815   000FA9                     EEADR           equ	4009	;# 
   816   000FAA                     EEADRH          equ	4010	;# 
   817   000FAB                     RCSTA           equ	4011	;# 
   818   000FAB                     RCSTA1          equ	4011	;# 
   819   000FAC                     TXSTA           equ	4012	;# 
   820   000FAC                     TXSTA1          equ	4012	;# 
   821   000FAD                     TXREG           equ	4013	;# 
   822   000FAD                     TXREG1          equ	4013	;# 
   823   000FAE                     RCREG           equ	4014	;# 
   824   000FAE                     RCREG1          equ	4014	;# 
   825   000FAF                     SPBRG           equ	4015	;# 
   826   000FAF                     SPBRG1          equ	4015	;# 
   827   000FB0                     SPBRGH          equ	4016	;# 
   828   000FB1                     T3CON           equ	4017	;# 
   829   000FB2                     TMR3            equ	4018	;# 
   830   000FB2                     TMR3L           equ	4018	;# 
   831   000FB3                     TMR3H           equ	4019	;# 
   832   000FB4                     CMCON           equ	4020	;# 
   833   000FB5                     CVRCON          equ	4021	;# 
   834   000FB6                     ECCP1AS         equ	4022	;# 
   835   000FB7                     PWM1CON         equ	4023	;# 
   836   000FB8                     BAUDCON         equ	4024	;# 
   837   000FB8                     BAUDCTL         equ	4024	;# 
   838   000FBA                     CCP2CON         equ	4026	;# 
   839   000FBB                     CCPR2           equ	4027	;# 
   840   000FBB                     CCPR2L          equ	4027	;# 
   841   000FBC                     CCPR2H          equ	4028	;# 
   842   000FBD                     CCP1CON         equ	4029	;# 
   843   000FBE                     CCPR1           equ	4030	;# 
   844   000FBE                     CCPR1L          equ	4030	;# 
   845   000FBF                     CCPR1H          equ	4031	;# 
   846   000FC0                     ADCON2          equ	4032	;# 
   847   000FC1                     ADCON1          equ	4033	;# 
   848   000FC2                     ADCON0          equ	4034	;# 
   849   000FC3                     ADRES           equ	4035	;# 
   850   000FC3                     ADRESL          equ	4035	;# 
   851   000FC4                     ADRESH          equ	4036	;# 
   852   000FC5                     SSPCON2         equ	4037	;# 
   853   000FC6                     SSPCON1         equ	4038	;# 
   854   000FC7                     SSPSTAT         equ	4039	;# 
   855   000FC8                     SSPADD          equ	4040	;# 
   856   000FC9                     SSPBUF          equ	4041	;# 
   857   000FCA                     T2CON           equ	4042	;# 
   858   000FCB                     PR2             equ	4043	;# 
   859   000FCB                     MEMCON          equ	4043	;# 
   860   000FCC                     TMR2            equ	4044	;# 
   861   000FCD                     T1CON           equ	4045	;# 
   862   000FCE                     TMR1            equ	4046	;# 
   863   000FCE                     TMR1L           equ	4046	;# 
   864   000FCF                     TMR1H           equ	4047	;# 
   865   000FD0                     RCON            equ	4048	;# 
   866   000FD1                     WDTCON          equ	4049	;# 
   867   000FD2                     HLVDCON         equ	4050	;# 
   868   000FD2                     LVDCON          equ	4050	;# 
   869   000FD3                     OSCCON          equ	4051	;# 
   870   000FD5                     T0CON           equ	4053	;# 
   871   000FD6                     TMR0            equ	4054	;# 
   872   000FD6                     TMR0L           equ	4054	;# 
   873   000FD7                     TMR0H           equ	4055	;# 
   874   000FD8                     STATUS          equ	4056	;# 
   875   000FD9                     FSR2            equ	4057	;# 
   876   000FD9                     FSR2L           equ	4057	;# 
   877   000FDA                     FSR2H           equ	4058	;# 
   878   000FDB                     PLUSW2          equ	4059	;# 
   879   000FDC                     PREINC2         equ	4060	;# 
   880   000FDD                     POSTDEC2        equ	4061	;# 
   881   000FDE                     POSTINC2        equ	4062	;# 
   882   000FDF                     INDF2           equ	4063	;# 
   883   000FE0                     BSR             equ	4064	;# 
   884   000FE1                     FSR1            equ	4065	;# 
   885   000FE1                     FSR1L           equ	4065	;# 
   886   000FE2                     FSR1H           equ	4066	;# 
   887   000FE3                     PLUSW1          equ	4067	;# 
   888   000FE4                     PREINC1         equ	4068	;# 
   889   000FE5                     POSTDEC1        equ	4069	;# 
   890   000FE6                     POSTINC1        equ	4070	;# 
   891   000FE7                     INDF1           equ	4071	;# 
   892   000FE8                     WREG            equ	4072	;# 
   893   000FE9                     FSR0            equ	4073	;# 
   894   000FE9                     FSR0L           equ	4073	;# 
   895   000FEA                     FSR0H           equ	4074	;# 
   896   000FEB                     PLUSW0          equ	4075	;# 
   897   000FEC                     PREINC0         equ	4076	;# 
   898   000FED                     POSTDEC0        equ	4077	;# 
   899   000FEE                     POSTINC0        equ	4078	;# 
   900   000FEF                     INDF0           equ	4079	;# 
   901   000FF0                     INTCON3         equ	4080	;# 
   902   000FF1                     INTCON2         equ	4081	;# 
   903   000FF2                     INTCON          equ	4082	;# 
   904   000FF3                     PROD            equ	4083	;# 
   905   000FF3                     PRODL           equ	4083	;# 
   906   000FF4                     PRODH           equ	4084	;# 
   907   000FF5                     TABLAT          equ	4085	;# 
   908   000FF6                     TBLPTR          equ	4086	;# 
   909   000FF6                     TBLPTRL         equ	4086	;# 
   910   000FF7                     TBLPTRH         equ	4087	;# 
   911   000FF8                     TBLPTRU         equ	4088	;# 
   912   000FF9                     PCLAT           equ	4089	;# 
   913   000FF9                     PC              equ	4089	;# 
   914   000FF9                     PCL             equ	4089	;# 
   915   000FFA                     PCLATH          equ	4090	;# 
   916   000FFB                     PCLATU          equ	4091	;# 
   917   000FFC                     STKPTR          equ	4092	;# 
   918   000FFD                     TOS             equ	4093	;# 
   919   000FFD                     TOSL            equ	4093	;# 
   920   000FFE                     TOSH            equ	4094	;# 
   921   000FFF                     TOSU            equ	4095	;# 
   922   000F80                     PORTA           equ	3968	;# 
   923   000F81                     PORTB           equ	3969	;# 
   924   000F82                     PORTC           equ	3970	;# 
   925   000F83                     PORTD           equ	3971	;# 
   926   000F84                     PORTE           equ	3972	;# 
   927   000F89                     LATA            equ	3977	;# 
   928   000F8A                     LATB            equ	3978	;# 
   929   000F8B                     LATC            equ	3979	;# 
   930   000F8C                     LATD            equ	3980	;# 
   931   000F8D                     LATE            equ	3981	;# 
   932   000F92                     TRISA           equ	3986	;# 
   933   000F92                     DDRA            equ	3986	;# 
   934   000F93                     TRISB           equ	3987	;# 
   935   000F93                     DDRB            equ	3987	;# 
   936   000F94                     TRISC           equ	3988	;# 
   937   000F94                     DDRC            equ	3988	;# 
   938   000F95                     TRISD           equ	3989	;# 
   939   000F95                     DDRD            equ	3989	;# 
   940   000F96                     TRISE           equ	3990	;# 
   941   000F96                     DDRE            equ	3990	;# 
   942   000F9B                     OSCTUNE         equ	3995	;# 
   943   000F9D                     PIE1            equ	3997	;# 
   944   000F9E                     PIR1            equ	3998	;# 
   945   000F9F                     IPR1            equ	3999	;# 
   946   000FA0                     PIE2            equ	4000	;# 
   947   000FA1                     PIR2            equ	4001	;# 
   948   000FA2                     IPR2            equ	4002	;# 
   949   000FA6                     EECON1          equ	4006	;# 
   950   000FA7                     EECON2          equ	4007	;# 
   951   000FA8                     EEDATA          equ	4008	;# 
   952   000FA9                     EEADR           equ	4009	;# 
   953   000FAA                     EEADRH          equ	4010	;# 
   954   000FAB                     RCSTA           equ	4011	;# 
   955   000FAB                     RCSTA1          equ	4011	;# 
   956   000FAC                     TXSTA           equ	4012	;# 
   957   000FAC                     TXSTA1          equ	4012	;# 
   958   000FAD                     TXREG           equ	4013	;# 
   959   000FAD                     TXREG1          equ	4013	;# 
   960   000FAE                     RCREG           equ	4014	;# 
   961   000FAE                     RCREG1          equ	4014	;# 
   962   000FAF                     SPBRG           equ	4015	;# 
   963   000FAF                     SPBRG1          equ	4015	;# 
   964   000FB0                     SPBRGH          equ	4016	;# 
   965   000FB1                     T3CON           equ	4017	;# 
   966   000FB2                     TMR3            equ	4018	;# 
   967   000FB2                     TMR3L           equ	4018	;# 
   968   000FB3                     TMR3H           equ	4019	;# 
   969   000FB4                     CMCON           equ	4020	;# 
   970   000FB5                     CVRCON          equ	4021	;# 
   971   000FB6                     ECCP1AS         equ	4022	;# 
   972   000FB7                     PWM1CON         equ	4023	;# 
   973   000FB8                     BAUDCON         equ	4024	;# 
   974   000FB8                     BAUDCTL         equ	4024	;# 
   975   000FBA                     CCP2CON         equ	4026	;# 
   976   000FBB                     CCPR2           equ	4027	;# 
   977   000FBB                     CCPR2L          equ	4027	;# 
   978   000FBC                     CCPR2H          equ	4028	;# 
   979   000FBD                     CCP1CON         equ	4029	;# 
   980   000FBE                     CCPR1           equ	4030	;# 
   981   000FBE                     CCPR1L          equ	4030	;# 
   982   000FBF                     CCPR1H          equ	4031	;# 
   983   000FC0                     ADCON2          equ	4032	;# 
   984   000FC1                     ADCON1          equ	4033	;# 
   985   000FC2                     ADCON0          equ	4034	;# 
   986   000FC3                     ADRES           equ	4035	;# 
   987   000FC3                     ADRESL          equ	4035	;# 
   988   000FC4                     ADRESH          equ	4036	;# 
   989   000FC5                     SSPCON2         equ	4037	;# 
   990   000FC6                     SSPCON1         equ	4038	;# 
   991   000FC7                     SSPSTAT         equ	4039	;# 
   992   000FC8                     SSPADD          equ	4040	;# 
   993   000FC9                     SSPBUF          equ	4041	;# 
   994   000FCA                     T2CON           equ	4042	;# 
   995   000FCB                     PR2             equ	4043	;# 
   996   000FCB                     MEMCON          equ	4043	;# 
   997   000FCC                     TMR2            equ	4044	;# 
   998   000FCD                     T1CON           equ	4045	;# 
   999   000FCE                     TMR1            equ	4046	;# 
  1000   000FCE                     TMR1L           equ	4046	;# 
  1001   000FCF                     TMR1H           equ	4047	;# 
  1002   000FD0                     RCON            equ	4048	;# 
  1003   000FD1                     WDTCON          equ	4049	;# 
  1004   000FD2                     HLVDCON         equ	4050	;# 
  1005   000FD2                     LVDCON          equ	4050	;# 
  1006   000FD3                     OSCCON          equ	4051	;# 
  1007   000FD5                     T0CON           equ	4053	;# 
  1008   000FD6                     TMR0            equ	4054	;# 
  1009   000FD6                     TMR0L           equ	4054	;# 
  1010   000FD7                     TMR0H           equ	4055	;# 
  1011   000FD8                     STATUS          equ	4056	;# 
  1012   000FD9                     FSR2            equ	4057	;# 
  1013   000FD9                     FSR2L           equ	4057	;# 
  1014   000FDA                     FSR2H           equ	4058	;# 
  1015   000FDB                     PLUSW2          equ	4059	;# 
  1016   000FDC                     PREINC2         equ	4060	;# 
  1017   000FDD                     POSTDEC2        equ	4061	;# 
  1018   000FDE                     POSTINC2        equ	4062	;# 
  1019   000FDF                     INDF2           equ	4063	;# 
  1020   000FE0                     BSR             equ	4064	;# 
  1021   000FE1                     FSR1            equ	4065	;# 
  1022   000FE1                     FSR1L           equ	4065	;# 
  1023   000FE2                     FSR1H           equ	4066	;# 
  1024   000FE3                     PLUSW1          equ	4067	;# 
  1025   000FE4                     PREINC1         equ	4068	;# 
  1026   000FE5                     POSTDEC1        equ	4069	;# 
  1027   000FE6                     POSTINC1        equ	4070	;# 
  1028   000FE7                     INDF1           equ	4071	;# 
  1029   000FE8                     WREG            equ	4072	;# 
  1030   000FE9                     FSR0            equ	4073	;# 
  1031   000FE9                     FSR0L           equ	4073	;# 
  1032   000FEA                     FSR0H           equ	4074	;# 
  1033   000FEB                     PLUSW0          equ	4075	;# 
  1034   000FEC                     PREINC0         equ	4076	;# 
  1035   000FED                     POSTDEC0        equ	4077	;# 
  1036   000FEE                     POSTINC0        equ	4078	;# 
  1037   000FEF                     INDF0           equ	4079	;# 
  1038   000FF0                     INTCON3         equ	4080	;# 
  1039   000FF1                     INTCON2         equ	4081	;# 
  1040   000FF2                     INTCON          equ	4082	;# 
  1041   000FF3                     PROD            equ	4083	;# 
  1042   000FF3                     PRODL           equ	4083	;# 
  1043   000FF4                     PRODH           equ	4084	;# 
  1044   000FF5                     TABLAT          equ	4085	;# 
  1045   000FF6                     TBLPTR          equ	4086	;# 
  1046   000FF6                     TBLPTRL         equ	4086	;# 
  1047   000FF7                     TBLPTRH         equ	4087	;# 
  1048   000FF8                     TBLPTRU         equ	4088	;# 
  1049   000FF9                     PCLAT           equ	4089	;# 
  1050   000FF9                     PC              equ	4089	;# 
  1051   000FF9                     PCL             equ	4089	;# 
  1052   000FFA                     PCLATH          equ	4090	;# 
  1053   000FFB                     PCLATU          equ	4091	;# 
  1054   000FFC                     STKPTR          equ	4092	;# 
  1055   000FFD                     TOS             equ	4093	;# 
  1056   000FFD                     TOSL            equ	4093	;# 
  1057   000FFE                     TOSH            equ	4094	;# 
  1058   000FFF                     TOSU            equ	4095	;# 
  1059   000F80                     PORTA           equ	3968	;# 
  1060   000F81                     PORTB           equ	3969	;# 
  1061   000F82                     PORTC           equ	3970	;# 
  1062   000F83                     PORTD           equ	3971	;# 
  1063   000F84                     PORTE           equ	3972	;# 
  1064   000F89                     LATA            equ	3977	;# 
  1065   000F8A                     LATB            equ	3978	;# 
  1066   000F8B                     LATC            equ	3979	;# 
  1067   000F8C                     LATD            equ	3980	;# 
  1068   000F8D                     LATE            equ	3981	;# 
  1069   000F92                     TRISA           equ	3986	;# 
  1070   000F92                     DDRA            equ	3986	;# 
  1071   000F93                     TRISB           equ	3987	;# 
  1072   000F93                     DDRB            equ	3987	;# 
  1073   000F94                     TRISC           equ	3988	;# 
  1074   000F94                     DDRC            equ	3988	;# 
  1075   000F95                     TRISD           equ	3989	;# 
  1076   000F95                     DDRD            equ	3989	;# 
  1077   000F96                     TRISE           equ	3990	;# 
  1078   000F96                     DDRE            equ	3990	;# 
  1079   000F9B                     OSCTUNE         equ	3995	;# 
  1080   000F9D                     PIE1            equ	3997	;# 
  1081   000F9E                     PIR1            equ	3998	;# 
  1082   000F9F                     IPR1            equ	3999	;# 
  1083   000FA0                     PIE2            equ	4000	;# 
  1084   000FA1                     PIR2            equ	4001	;# 
  1085   000FA2                     IPR2            equ	4002	;# 
  1086   000FA6                     EECON1          equ	4006	;# 
  1087   000FA7                     EECON2          equ	4007	;# 
  1088   000FA8                     EEDATA          equ	4008	;# 
  1089   000FA9                     EEADR           equ	4009	;# 
  1090   000FAA                     EEADRH          equ	4010	;# 
  1091   000FAB                     RCSTA           equ	4011	;# 
  1092   000FAB                     RCSTA1          equ	4011	;# 
  1093   000FAC                     TXSTA           equ	4012	;# 
  1094   000FAC                     TXSTA1          equ	4012	;# 
  1095   000FAD                     TXREG           equ	4013	;# 
  1096   000FAD                     TXREG1          equ	4013	;# 
  1097   000FAE                     RCREG           equ	4014	;# 
  1098   000FAE                     RCREG1          equ	4014	;# 
  1099   000FAF                     SPBRG           equ	4015	;# 
  1100   000FAF                     SPBRG1          equ	4015	;# 
  1101   000FB0                     SPBRGH          equ	4016	;# 
  1102   000FB1                     T3CON           equ	4017	;# 
  1103   000FB2                     TMR3            equ	4018	;# 
  1104   000FB2                     TMR3L           equ	4018	;# 
  1105   000FB3                     TMR3H           equ	4019	;# 
  1106   000FB4                     CMCON           equ	4020	;# 
  1107   000FB5                     CVRCON          equ	4021	;# 
  1108   000FB6                     ECCP1AS         equ	4022	;# 
  1109   000FB7                     PWM1CON         equ	4023	;# 
  1110   000FB8                     BAUDCON         equ	4024	;# 
  1111   000FB8                     BAUDCTL         equ	4024	;# 
  1112   000FBA                     CCP2CON         equ	4026	;# 
  1113   000FBB                     CCPR2           equ	4027	;# 
  1114   000FBB                     CCPR2L          equ	4027	;# 
  1115   000FBC                     CCPR2H          equ	4028	;# 
  1116   000FBD                     CCP1CON         equ	4029	;# 
  1117   000FBE                     CCPR1           equ	4030	;# 
  1118   000FBE                     CCPR1L          equ	4030	;# 
  1119   000FBF                     CCPR1H          equ	4031	;# 
  1120   000FC0                     ADCON2          equ	4032	;# 
  1121   000FC1                     ADCON1          equ	4033	;# 
  1122   000FC2                     ADCON0          equ	4034	;# 
  1123   000FC3                     ADRES           equ	4035	;# 
  1124   000FC3                     ADRESL          equ	4035	;# 
  1125   000FC4                     ADRESH          equ	4036	;# 
  1126   000FC5                     SSPCON2         equ	4037	;# 
  1127   000FC6                     SSPCON1         equ	4038	;# 
  1128   000FC7                     SSPSTAT         equ	4039	;# 
  1129   000FC8                     SSPADD          equ	4040	;# 
  1130   000FC9                     SSPBUF          equ	4041	;# 
  1131   000FCA                     T2CON           equ	4042	;# 
  1132   000FCB                     PR2             equ	4043	;# 
  1133   000FCB                     MEMCON          equ	4043	;# 
  1134   000FCC                     TMR2            equ	4044	;# 
  1135   000FCD                     T1CON           equ	4045	;# 
  1136   000FCE                     TMR1            equ	4046	;# 
  1137   000FCE                     TMR1L           equ	4046	;# 
  1138   000FCF                     TMR1H           equ	4047	;# 
  1139   000FD0                     RCON            equ	4048	;# 
  1140   000FD1                     WDTCON          equ	4049	;# 
  1141   000FD2                     HLVDCON         equ	4050	;# 
  1142   000FD2                     LVDCON          equ	4050	;# 
  1143   000FD3                     OSCCON          equ	4051	;# 
  1144   000FD5                     T0CON           equ	4053	;# 
  1145   000FD6                     TMR0            equ	4054	;# 
  1146   000FD6                     TMR0L           equ	4054	;# 
  1147   000FD7                     TMR0H           equ	4055	;# 
  1148   000FD8                     STATUS          equ	4056	;# 
  1149   000FD9                     FSR2            equ	4057	;# 
  1150   000FD9                     FSR2L           equ	4057	;# 
  1151   000FDA                     FSR2H           equ	4058	;# 
  1152   000FDB                     PLUSW2          equ	4059	;# 
  1153   000FDC                     PREINC2         equ	4060	;# 
  1154   000FDD                     POSTDEC2        equ	4061	;# 
  1155   000FDE                     POSTINC2        equ	4062	;# 
  1156   000FDF                     INDF2           equ	4063	;# 
  1157   000FE0                     BSR             equ	4064	;# 
  1158   000FE1                     FSR1            equ	4065	;# 
  1159   000FE1                     FSR1L           equ	4065	;# 
  1160   000FE2                     FSR1H           equ	4066	;# 
  1161   000FE3                     PLUSW1          equ	4067	;# 
  1162   000FE4                     PREINC1         equ	4068	;# 
  1163   000FE5                     POSTDEC1        equ	4069	;# 
  1164   000FE6                     POSTINC1        equ	4070	;# 
  1165   000FE7                     INDF1           equ	4071	;# 
  1166   000FE8                     WREG            equ	4072	;# 
  1167   000FE9                     FSR0            equ	4073	;# 
  1168   000FE9                     FSR0L           equ	4073	;# 
  1169   000FEA                     FSR0H           equ	4074	;# 
  1170   000FEB                     PLUSW0          equ	4075	;# 
  1171   000FEC                     PREINC0         equ	4076	;# 
  1172   000FED                     POSTDEC0        equ	4077	;# 
  1173   000FEE                     POSTINC0        equ	4078	;# 
  1174   000FEF                     INDF0           equ	4079	;# 
  1175   000FF0                     INTCON3         equ	4080	;# 
  1176   000FF1                     INTCON2         equ	4081	;# 
  1177   000FF2                     INTCON          equ	4082	;# 
  1178   000FF3                     PROD            equ	4083	;# 
  1179   000FF3                     PRODL           equ	4083	;# 
  1180   000FF4                     PRODH           equ	4084	;# 
  1181   000FF5                     TABLAT          equ	4085	;# 
  1182   000FF6                     TBLPTR          equ	4086	;# 
  1183   000FF6                     TBLPTRL         equ	4086	;# 
  1184   000FF7                     TBLPTRH         equ	4087	;# 
  1185   000FF8                     TBLPTRU         equ	4088	;# 
  1186   000FF9                     PCLAT           equ	4089	;# 
  1187   000FF9                     PC              equ	4089	;# 
  1188   000FF9                     PCL             equ	4089	;# 
  1189   000FFA                     PCLATH          equ	4090	;# 
  1190   000FFB                     PCLATU          equ	4091	;# 
  1191   000FFC                     STKPTR          equ	4092	;# 
  1192   000FFD                     TOS             equ	4093	;# 
  1193   000FFD                     TOSL            equ	4093	;# 
  1194   000FFE                     TOSH            equ	4094	;# 
  1195   000FFF                     TOSU            equ	4095	;# 
  1196   000F80                     PORTA           equ	3968	;# 
  1197   000F81                     PORTB           equ	3969	;# 
  1198   000F82                     PORTC           equ	3970	;# 
  1199   000F83                     PORTD           equ	3971	;# 
  1200   000F84                     PORTE           equ	3972	;# 
  1201   000F89                     LATA            equ	3977	;# 
  1202   000F8A                     LATB            equ	3978	;# 
  1203   000F8B                     LATC            equ	3979	;# 
  1204   000F8C                     LATD            equ	3980	;# 
  1205   000F8D                     LATE            equ	3981	;# 
  1206   000F92                     TRISA           equ	3986	;# 
  1207   000F92                     DDRA            equ	3986	;# 
  1208   000F93                     TRISB           equ	3987	;# 
  1209   000F93                     DDRB            equ	3987	;# 
  1210   000F94                     TRISC           equ	3988	;# 
  1211   000F94                     DDRC            equ	3988	;# 
  1212   000F95                     TRISD           equ	3989	;# 
  1213   000F95                     DDRD            equ	3989	;# 
  1214   000F96                     TRISE           equ	3990	;# 
  1215   000F96                     DDRE            equ	3990	;# 
  1216   000F9B                     OSCTUNE         equ	3995	;# 
  1217   000F9D                     PIE1            equ	3997	;# 
  1218   000F9E                     PIR1            equ	3998	;# 
  1219   000F9F                     IPR1            equ	3999	;# 
  1220   000FA0                     PIE2            equ	4000	;# 
  1221   000FA1                     PIR2            equ	4001	;# 
  1222   000FA2                     IPR2            equ	4002	;# 
  1223   000FA6                     EECON1          equ	4006	;# 
  1224   000FA7                     EECON2          equ	4007	;# 
  1225   000FA8                     EEDATA          equ	4008	;# 
  1226   000FA9                     EEADR           equ	4009	;# 
  1227   000FAA                     EEADRH          equ	4010	;# 
  1228   000FAB                     RCSTA           equ	4011	;# 
  1229   000FAB                     RCSTA1          equ	4011	;# 
  1230   000FAC                     TXSTA           equ	4012	;# 
  1231   000FAC                     TXSTA1          equ	4012	;# 
  1232   000FAD                     TXREG           equ	4013	;# 
  1233   000FAD                     TXREG1          equ	4013	;# 
  1234   000FAE                     RCREG           equ	4014	;# 
  1235   000FAE                     RCREG1          equ	4014	;# 
  1236   000FAF                     SPBRG           equ	4015	;# 
  1237   000FAF                     SPBRG1          equ	4015	;# 
  1238   000FB0                     SPBRGH          equ	4016	;# 
  1239   000FB1                     T3CON           equ	4017	;# 
  1240   000FB2                     TMR3            equ	4018	;# 
  1241   000FB2                     TMR3L           equ	4018	;# 
  1242   000FB3                     TMR3H           equ	4019	;# 
  1243   000FB4                     CMCON           equ	4020	;# 
  1244   000FB5                     CVRCON          equ	4021	;# 
  1245   000FB6                     ECCP1AS         equ	4022	;# 
  1246   000FB7                     PWM1CON         equ	4023	;# 
  1247   000FB8                     BAUDCON         equ	4024	;# 
  1248   000FB8                     BAUDCTL         equ	4024	;# 
  1249   000FBA                     CCP2CON         equ	4026	;# 
  1250   000FBB                     CCPR2           equ	4027	;# 
  1251   000FBB                     CCPR2L          equ	4027	;# 
  1252   000FBC                     CCPR2H          equ	4028	;# 
  1253   000FBD                     CCP1CON         equ	4029	;# 
  1254   000FBE                     CCPR1           equ	4030	;# 
  1255   000FBE                     CCPR1L          equ	4030	;# 
  1256   000FBF                     CCPR1H          equ	4031	;# 
  1257   000FC0                     ADCON2          equ	4032	;# 
  1258   000FC1                     ADCON1          equ	4033	;# 
  1259   000FC2                     ADCON0          equ	4034	;# 
  1260   000FC3                     ADRES           equ	4035	;# 
  1261   000FC3                     ADRESL          equ	4035	;# 
  1262   000FC4                     ADRESH          equ	4036	;# 
  1263   000FC5                     SSPCON2         equ	4037	;# 
  1264   000FC6                     SSPCON1         equ	4038	;# 
  1265   000FC7                     SSPSTAT         equ	4039	;# 
  1266   000FC8                     SSPADD          equ	4040	;# 
  1267   000FC9                     SSPBUF          equ	4041	;# 
  1268   000FCA                     T2CON           equ	4042	;# 
  1269   000FCB                     PR2             equ	4043	;# 
  1270   000FCB                     MEMCON          equ	4043	;# 
  1271   000FCC                     TMR2            equ	4044	;# 
  1272   000FCD                     T1CON           equ	4045	;# 
  1273   000FCE                     TMR1            equ	4046	;# 
  1274   000FCE                     TMR1L           equ	4046	;# 
  1275   000FCF                     TMR1H           equ	4047	;# 
  1276   000FD0                     RCON            equ	4048	;# 
  1277   000FD1                     WDTCON          equ	4049	;# 
  1278   000FD2                     HLVDCON         equ	4050	;# 
  1279   000FD2                     LVDCON          equ	4050	;# 
  1280   000FD3                     OSCCON          equ	4051	;# 
  1281   000FD5                     T0CON           equ	4053	;# 
  1282   000FD6                     TMR0            equ	4054	;# 
  1283   000FD6                     TMR0L           equ	4054	;# 
  1284   000FD7                     TMR0H           equ	4055	;# 
  1285   000FD8                     STATUS          equ	4056	;# 
  1286   000FD9                     FSR2            equ	4057	;# 
  1287   000FD9                     FSR2L           equ	4057	;# 
  1288   000FDA                     FSR2H           equ	4058	;# 
  1289   000FDB                     PLUSW2          equ	4059	;# 
  1290   000FDC                     PREINC2         equ	4060	;# 
  1291   000FDD                     POSTDEC2        equ	4061	;# 
  1292   000FDE                     POSTINC2        equ	4062	;# 
  1293   000FDF                     INDF2           equ	4063	;# 
  1294   000FE0                     BSR             equ	4064	;# 
  1295   000FE1                     FSR1            equ	4065	;# 
  1296   000FE1                     FSR1L           equ	4065	;# 
  1297   000FE2                     FSR1H           equ	4066	;# 
  1298   000FE3                     PLUSW1          equ	4067	;# 
  1299   000FE4                     PREINC1         equ	4068	;# 
  1300   000FE5                     POSTDEC1        equ	4069	;# 
  1301   000FE6                     POSTINC1        equ	4070	;# 
  1302   000FE7                     INDF1           equ	4071	;# 
  1303   000FE8                     WREG            equ	4072	;# 
  1304   000FE9                     FSR0            equ	4073	;# 
  1305   000FE9                     FSR0L           equ	4073	;# 
  1306   000FEA                     FSR0H           equ	4074	;# 
  1307   000FEB                     PLUSW0          equ	4075	;# 
  1308   000FEC                     PREINC0         equ	4076	;# 
  1309   000FED                     POSTDEC0        equ	4077	;# 
  1310   000FEE                     POSTINC0        equ	4078	;# 
  1311   000FEF                     INDF0           equ	4079	;# 
  1312   000FF0                     INTCON3         equ	4080	;# 
  1313   000FF1                     INTCON2         equ	4081	;# 
  1314   000FF2                     INTCON          equ	4082	;# 
  1315   000FF3                     PROD            equ	4083	;# 
  1316   000FF3                     PRODL           equ	4083	;# 
  1317   000FF4                     PRODH           equ	4084	;# 
  1318   000FF5                     TABLAT          equ	4085	;# 
  1319   000FF6                     TBLPTR          equ	4086	;# 
  1320   000FF6                     TBLPTRL         equ	4086	;# 
  1321   000FF7                     TBLPTRH         equ	4087	;# 
  1322   000FF8                     TBLPTRU         equ	4088	;# 
  1323   000FF9                     PCLAT           equ	4089	;# 
  1324   000FF9                     PC              equ	4089	;# 
  1325   000FF9                     PCL             equ	4089	;# 
  1326   000FFA                     PCLATH          equ	4090	;# 
  1327   000FFB                     PCLATU          equ	4091	;# 
  1328   000FFC                     STKPTR          equ	4092	;# 
  1329   000FFD                     TOS             equ	4093	;# 
  1330   000FFD                     TOSL            equ	4093	;# 
  1331   000FFE                     TOSH            equ	4094	;# 
  1332   000FFF                     TOSU            equ	4095	;# 
  1333   000F80                     PORTA           equ	3968	;# 
  1334   000F81                     PORTB           equ	3969	;# 
  1335   000F82                     PORTC           equ	3970	;# 
  1336   000F83                     PORTD           equ	3971	;# 
  1337   000F84                     PORTE           equ	3972	;# 
  1338   000F89                     LATA            equ	3977	;# 
  1339   000F8A                     LATB            equ	3978	;# 
  1340   000F8B                     LATC            equ	3979	;# 
  1341   000F8C                     LATD            equ	3980	;# 
  1342   000F8D                     LATE            equ	3981	;# 
  1343   000F92                     TRISA           equ	3986	;# 
  1344   000F92                     DDRA            equ	3986	;# 
  1345   000F93                     TRISB           equ	3987	;# 
  1346   000F93                     DDRB            equ	3987	;# 
  1347   000F94                     TRISC           equ	3988	;# 
  1348   000F94                     DDRC            equ	3988	;# 
  1349   000F95                     TRISD           equ	3989	;# 
  1350   000F95                     DDRD            equ	3989	;# 
  1351   000F96                     TRISE           equ	3990	;# 
  1352   000F96                     DDRE            equ	3990	;# 
  1353   000F9B                     OSCTUNE         equ	3995	;# 
  1354   000F9D                     PIE1            equ	3997	;# 
  1355   000F9E                     PIR1            equ	3998	;# 
  1356   000F9F                     IPR1            equ	3999	;# 
  1357   000FA0                     PIE2            equ	4000	;# 
  1358   000FA1                     PIR2            equ	4001	;# 
  1359   000FA2                     IPR2            equ	4002	;# 
  1360   000FA6                     EECON1          equ	4006	;# 
  1361   000FA7                     EECON2          equ	4007	;# 
  1362   000FA8                     EEDATA          equ	4008	;# 
  1363   000FA9                     EEADR           equ	4009	;# 
  1364   000FAA                     EEADRH          equ	4010	;# 
  1365   000FAB                     RCSTA           equ	4011	;# 
  1366   000FAB                     RCSTA1          equ	4011	;# 
  1367   000FAC                     TXSTA           equ	4012	;# 
  1368   000FAC                     TXSTA1          equ	4012	;# 
  1369   000FAD                     TXREG           equ	4013	;# 
  1370   000FAD                     TXREG1          equ	4013	;# 
  1371   000FAE                     RCREG           equ	4014	;# 
  1372   000FAE                     RCREG1          equ	4014	;# 
  1373   000FAF                     SPBRG           equ	4015	;# 
  1374   000FAF                     SPBRG1          equ	4015	;# 
  1375   000FB0                     SPBRGH          equ	4016	;# 
  1376   000FB1                     T3CON           equ	4017	;# 
  1377   000FB2                     TMR3            equ	4018	;# 
  1378   000FB2                     TMR3L           equ	4018	;# 
  1379   000FB3                     TMR3H           equ	4019	;# 
  1380   000FB4                     CMCON           equ	4020	;# 
  1381   000FB5                     CVRCON          equ	4021	;# 
  1382   000FB6                     ECCP1AS         equ	4022	;# 
  1383   000FB7                     PWM1CON         equ	4023	;# 
  1384   000FB8                     BAUDCON         equ	4024	;# 
  1385   000FB8                     BAUDCTL         equ	4024	;# 
  1386   000FBA                     CCP2CON         equ	4026	;# 
  1387   000FBB                     CCPR2           equ	4027	;# 
  1388   000FBB                     CCPR2L          equ	4027	;# 
  1389   000FBC                     CCPR2H          equ	4028	;# 
  1390   000FBD                     CCP1CON         equ	4029	;# 
  1391   000FBE                     CCPR1           equ	4030	;# 
  1392   000FBE                     CCPR1L          equ	4030	;# 
  1393   000FBF                     CCPR1H          equ	4031	;# 
  1394   000FC0                     ADCON2          equ	4032	;# 
  1395   000FC1                     ADCON1          equ	4033	;# 
  1396   000FC2                     ADCON0          equ	4034	;# 
  1397   000FC3                     ADRES           equ	4035	;# 
  1398   000FC3                     ADRESL          equ	4035	;# 
  1399   000FC4                     ADRESH          equ	4036	;# 
  1400   000FC5                     SSPCON2         equ	4037	;# 
  1401   000FC6                     SSPCON1         equ	4038	;# 
  1402   000FC7                     SSPSTAT         equ	4039	;# 
  1403   000FC8                     SSPADD          equ	4040	;# 
  1404   000FC9                     SSPBUF          equ	4041	;# 
  1405   000FCA                     T2CON           equ	4042	;# 
  1406   000FCB                     PR2             equ	4043	;# 
  1407   000FCB                     MEMCON          equ	4043	;# 
  1408   000FCC                     TMR2            equ	4044	;# 
  1409   000FCD                     T1CON           equ	4045	;# 
  1410   000FCE                     TMR1            equ	4046	;# 
  1411   000FCE                     TMR1L           equ	4046	;# 
  1412   000FCF                     TMR1H           equ	4047	;# 
  1413   000FD0                     RCON            equ	4048	;# 
  1414   000FD1                     WDTCON          equ	4049	;# 
  1415   000FD2                     HLVDCON         equ	4050	;# 
  1416   000FD2                     LVDCON          equ	4050	;# 
  1417   000FD3                     OSCCON          equ	4051	;# 
  1418   000FD5                     T0CON           equ	4053	;# 
  1419   000FD6                     TMR0            equ	4054	;# 
  1420   000FD6                     TMR0L           equ	4054	;# 
  1421   000FD7                     TMR0H           equ	4055	;# 
  1422   000FD8                     STATUS          equ	4056	;# 
  1423   000FD9                     FSR2            equ	4057	;# 
  1424   000FD9                     FSR2L           equ	4057	;# 
  1425   000FDA                     FSR2H           equ	4058	;# 
  1426   000FDB                     PLUSW2          equ	4059	;# 
  1427   000FDC                     PREINC2         equ	4060	;# 
  1428   000FDD                     POSTDEC2        equ	4061	;# 
  1429   000FDE                     POSTINC2        equ	4062	;# 
  1430   000FDF                     INDF2           equ	4063	;# 
  1431   000FE0                     BSR             equ	4064	;# 
  1432   000FE1                     FSR1            equ	4065	;# 
  1433   000FE1                     FSR1L           equ	4065	;# 
  1434   000FE2                     FSR1H           equ	4066	;# 
  1435   000FE3                     PLUSW1          equ	4067	;# 
  1436   000FE4                     PREINC1         equ	4068	;# 
  1437   000FE5                     POSTDEC1        equ	4069	;# 
  1438   000FE6                     POSTINC1        equ	4070	;# 
  1439   000FE7                     INDF1           equ	4071	;# 
  1440   000FE8                     WREG            equ	4072	;# 
  1441   000FE9                     FSR0            equ	4073	;# 
  1442   000FE9                     FSR0L           equ	4073	;# 
  1443   000FEA                     FSR0H           equ	4074	;# 
  1444   000FEB                     PLUSW0          equ	4075	;# 
  1445   000FEC                     PREINC0         equ	4076	;# 
  1446   000FED                     POSTDEC0        equ	4077	;# 
  1447   000FEE                     POSTINC0        equ	4078	;# 
  1448   000FEF                     INDF0           equ	4079	;# 
  1449   000FF0                     INTCON3         equ	4080	;# 
  1450   000FF1                     INTCON2         equ	4081	;# 
  1451   000FF2                     INTCON          equ	4082	;# 
  1452   000FF3                     PROD            equ	4083	;# 
  1453   000FF3                     PRODL           equ	4083	;# 
  1454   000FF4                     PRODH           equ	4084	;# 
  1455   000FF5                     TABLAT          equ	4085	;# 
  1456   000FF6                     TBLPTR          equ	4086	;# 
  1457   000FF6                     TBLPTRL         equ	4086	;# 
  1458   000FF7                     TBLPTRH         equ	4087	;# 
  1459   000FF8                     TBLPTRU         equ	4088	;# 
  1460   000FF9                     PCLAT           equ	4089	;# 
  1461   000FF9                     PC              equ	4089	;# 
  1462   000FF9                     PCL             equ	4089	;# 
  1463   000FFA                     PCLATH          equ	4090	;# 
  1464   000FFB                     PCLATU          equ	4091	;# 
  1465   000FFC                     STKPTR          equ	4092	;# 
  1466   000FFD                     TOS             equ	4093	;# 
  1467   000FFD                     TOSL            equ	4093	;# 
  1468   000FFE                     TOSH            equ	4094	;# 
  1469   000FFF                     TOSU            equ	4095	;# 
  1470   000F80                     PORTA           equ	3968	;# 
  1471   000F81                     PORTB           equ	3969	;# 
  1472   000F82                     PORTC           equ	3970	;# 
  1473   000F83                     PORTD           equ	3971	;# 
  1474   000F84                     PORTE           equ	3972	;# 
  1475   000F89                     LATA            equ	3977	;# 
  1476   000F8A                     LATB            equ	3978	;# 
  1477   000F8B                     LATC            equ	3979	;# 
  1478   000F8C                     LATD            equ	3980	;# 
  1479   000F8D                     LATE            equ	3981	;# 
  1480   000F92                     TRISA           equ	3986	;# 
  1481   000F92                     DDRA            equ	3986	;# 
  1482   000F93                     TRISB           equ	3987	;# 
  1483   000F93                     DDRB            equ	3987	;# 
  1484   000F94                     TRISC           equ	3988	;# 
  1485   000F94                     DDRC            equ	3988	;# 
  1486   000F95                     TRISD           equ	3989	;# 
  1487   000F95                     DDRD            equ	3989	;# 
  1488   000F96                     TRISE           equ	3990	;# 
  1489   000F96                     DDRE            equ	3990	;# 
  1490   000F9B                     OSCTUNE         equ	3995	;# 
  1491   000F9D                     PIE1            equ	3997	;# 
  1492   000F9E                     PIR1            equ	3998	;# 
  1493   000F9F                     IPR1            equ	3999	;# 
  1494   000FA0                     PIE2            equ	4000	;# 
  1495   000FA1                     PIR2            equ	4001	;# 
  1496   000FA2                     IPR2            equ	4002	;# 
  1497   000FA6                     EECON1          equ	4006	;# 
  1498   000FA7                     EECON2          equ	4007	;# 
  1499   000FA8                     EEDATA          equ	4008	;# 
  1500   000FA9                     EEADR           equ	4009	;# 
  1501   000FAA                     EEADRH          equ	4010	;# 
  1502   000FAB                     RCSTA           equ	4011	;# 
  1503   000FAB                     RCSTA1          equ	4011	;# 
  1504   000FAC                     TXSTA           equ	4012	;# 
  1505   000FAC                     TXSTA1          equ	4012	;# 
  1506   000FAD                     TXREG           equ	4013	;# 
  1507   000FAD                     TXREG1          equ	4013	;# 
  1508   000FAE                     RCREG           equ	4014	;# 
  1509   000FAE                     RCREG1          equ	4014	;# 
  1510   000FAF                     SPBRG           equ	4015	;# 
  1511   000FAF                     SPBRG1          equ	4015	;# 
  1512   000FB0                     SPBRGH          equ	4016	;# 
  1513   000FB1                     T3CON           equ	4017	;# 
  1514   000FB2                     TMR3            equ	4018	;# 
  1515   000FB2                     TMR3L           equ	4018	;# 
  1516   000FB3                     TMR3H           equ	4019	;# 
  1517   000FB4                     CMCON           equ	4020	;# 
  1518   000FB5                     CVRCON          equ	4021	;# 
  1519   000FB6                     ECCP1AS         equ	4022	;# 
  1520   000FB7                     PWM1CON         equ	4023	;# 
  1521   000FB8                     BAUDCON         equ	4024	;# 
  1522   000FB8                     BAUDCTL         equ	4024	;# 
  1523   000FBA                     CCP2CON         equ	4026	;# 
  1524   000FBB                     CCPR2           equ	4027	;# 
  1525   000FBB                     CCPR2L          equ	4027	;# 
  1526   000FBC                     CCPR2H          equ	4028	;# 
  1527   000FBD                     CCP1CON         equ	4029	;# 
  1528   000FBE                     CCPR1           equ	4030	;# 
  1529   000FBE                     CCPR1L          equ	4030	;# 
  1530   000FBF                     CCPR1H          equ	4031	;# 
  1531   000FC0                     ADCON2          equ	4032	;# 
  1532   000FC1                     ADCON1          equ	4033	;# 
  1533   000FC2                     ADCON0          equ	4034	;# 
  1534   000FC3                     ADRES           equ	4035	;# 
  1535   000FC3                     ADRESL          equ	4035	;# 
  1536   000FC4                     ADRESH          equ	4036	;# 
  1537   000FC5                     SSPCON2         equ	4037	;# 
  1538   000FC6                     SSPCON1         equ	4038	;# 
  1539   000FC7                     SSPSTAT         equ	4039	;# 
  1540   000FC8                     SSPADD          equ	4040	;# 
  1541   000FC9                     SSPBUF          equ	4041	;# 
  1542   000FCA                     T2CON           equ	4042	;# 
  1543   000FCB                     PR2             equ	4043	;# 
  1544   000FCB                     MEMCON          equ	4043	;# 
  1545   000FCC                     TMR2            equ	4044	;# 
  1546   000FCD                     T1CON           equ	4045	;# 
  1547   000FCE                     TMR1            equ	4046	;# 
  1548   000FCE                     TMR1L           equ	4046	;# 
  1549   000FCF                     TMR1H           equ	4047	;# 
  1550   000FD0                     RCON            equ	4048	;# 
  1551   000FD1                     WDTCON          equ	4049	;# 
  1552   000FD2                     HLVDCON         equ	4050	;# 
  1553   000FD2                     LVDCON          equ	4050	;# 
  1554   000FD3                     OSCCON          equ	4051	;# 
  1555   000FD5                     T0CON           equ	4053	;# 
  1556   000FD6                     TMR0            equ	4054	;# 
  1557   000FD6                     TMR0L           equ	4054	;# 
  1558   000FD7                     TMR0H           equ	4055	;# 
  1559   000FD8                     STATUS          equ	4056	;# 
  1560   000FD9                     FSR2            equ	4057	;# 
  1561   000FD9                     FSR2L           equ	4057	;# 
  1562   000FDA                     FSR2H           equ	4058	;# 
  1563   000FDB                     PLUSW2          equ	4059	;# 
  1564   000FDC                     PREINC2         equ	4060	;# 
  1565   000FDD                     POSTDEC2        equ	4061	;# 
  1566   000FDE                     POSTINC2        equ	4062	;# 
  1567   000FDF                     INDF2           equ	4063	;# 
  1568   000FE0                     BSR             equ	4064	;# 
  1569   000FE1                     FSR1            equ	4065	;# 
  1570   000FE1                     FSR1L           equ	4065	;# 
  1571   000FE2                     FSR1H           equ	4066	;# 
  1572   000FE3                     PLUSW1          equ	4067	;# 
  1573   000FE4                     PREINC1         equ	4068	;# 
  1574   000FE5                     POSTDEC1        equ	4069	;# 
  1575   000FE6                     POSTINC1        equ	4070	;# 
  1576   000FE7                     INDF1           equ	4071	;# 
  1577   000FE8                     WREG            equ	4072	;# 
  1578   000FE9                     FSR0            equ	4073	;# 
  1579   000FE9                     FSR0L           equ	4073	;# 
  1580   000FEA                     FSR0H           equ	4074	;# 
  1581   000FEB                     PLUSW0          equ	4075	;# 
  1582   000FEC                     PREINC0         equ	4076	;# 
  1583   000FED                     POSTDEC0        equ	4077	;# 
  1584   000FEE                     POSTINC0        equ	4078	;# 
  1585   000FEF                     INDF0           equ	4079	;# 
  1586   000FF0                     INTCON3         equ	4080	;# 
  1587   000FF1                     INTCON2         equ	4081	;# 
  1588   000FF2                     INTCON          equ	4082	;# 
  1589   000FF3                     PROD            equ	4083	;# 
  1590   000FF3                     PRODL           equ	4083	;# 
  1591   000FF4                     PRODH           equ	4084	;# 
  1592   000FF5                     TABLAT          equ	4085	;# 
  1593   000FF6                     TBLPTR          equ	4086	;# 
  1594   000FF6                     TBLPTRL         equ	4086	;# 
  1595   000FF7                     TBLPTRH         equ	4087	;# 
  1596   000FF8                     TBLPTRU         equ	4088	;# 
  1597   000FF9                     PCLAT           equ	4089	;# 
  1598   000FF9                     PC              equ	4089	;# 
  1599   000FF9                     PCL             equ	4089	;# 
  1600   000FFA                     PCLATH          equ	4090	;# 
  1601   000FFB                     PCLATU          equ	4091	;# 
  1602   000FFC                     STKPTR          equ	4092	;# 
  1603   000FFD                     TOS             equ	4093	;# 
  1604   000FFD                     TOSL            equ	4093	;# 
  1605   000FFE                     TOSH            equ	4094	;# 
  1606   000FFF                     TOSU            equ	4095	;# 
  1607   000F80                     PORTA           equ	3968	;# 
  1608   000F81                     PORTB           equ	3969	;# 
  1609   000F82                     PORTC           equ	3970	;# 
  1610   000F83                     PORTD           equ	3971	;# 
  1611   000F84                     PORTE           equ	3972	;# 
  1612   000F89                     LATA            equ	3977	;# 
  1613   000F8A                     LATB            equ	3978	;# 
  1614   000F8B                     LATC            equ	3979	;# 
  1615   000F8C                     LATD            equ	3980	;# 
  1616   000F8D                     LATE            equ	3981	;# 
  1617   000F92                     TRISA           equ	3986	;# 
  1618   000F92                     DDRA            equ	3986	;# 
  1619   000F93                     TRISB           equ	3987	;# 
  1620   000F93                     DDRB            equ	3987	;# 
  1621   000F94                     TRISC           equ	3988	;# 
  1622   000F94                     DDRC            equ	3988	;# 
  1623   000F95                     TRISD           equ	3989	;# 
  1624   000F95                     DDRD            equ	3989	;# 
  1625   000F96                     TRISE           equ	3990	;# 
  1626   000F96                     DDRE            equ	3990	;# 
  1627   000F9B                     OSCTUNE         equ	3995	;# 
  1628   000F9D                     PIE1            equ	3997	;# 
  1629   000F9E                     PIR1            equ	3998	;# 
  1630   000F9F                     IPR1            equ	3999	;# 
  1631   000FA0                     PIE2            equ	4000	;# 
  1632   000FA1                     PIR2            equ	4001	;# 
  1633   000FA2                     IPR2            equ	4002	;# 
  1634   000FA6                     EECON1          equ	4006	;# 
  1635   000FA7                     EECON2          equ	4007	;# 
  1636   000FA8                     EEDATA          equ	4008	;# 
  1637   000FA9                     EEADR           equ	4009	;# 
  1638   000FAA                     EEADRH          equ	4010	;# 
  1639   000FAB                     RCSTA           equ	4011	;# 
  1640   000FAB                     RCSTA1          equ	4011	;# 
  1641   000FAC                     TXSTA           equ	4012	;# 
  1642   000FAC                     TXSTA1          equ	4012	;# 
  1643   000FAD                     TXREG           equ	4013	;# 
  1644   000FAD                     TXREG1          equ	4013	;# 
  1645   000FAE                     RCREG           equ	4014	;# 
  1646   000FAE                     RCREG1          equ	4014	;# 
  1647   000FAF                     SPBRG           equ	4015	;# 
  1648   000FAF                     SPBRG1          equ	4015	;# 
  1649   000FB0                     SPBRGH          equ	4016	;# 
  1650   000FB1                     T3CON           equ	4017	;# 
  1651   000FB2                     TMR3            equ	4018	;# 
  1652   000FB2                     TMR3L           equ	4018	;# 
  1653   000FB3                     TMR3H           equ	4019	;# 
  1654   000FB4                     CMCON           equ	4020	;# 
  1655   000FB5                     CVRCON          equ	4021	;# 
  1656   000FB6                     ECCP1AS         equ	4022	;# 
  1657   000FB7                     PWM1CON         equ	4023	;# 
  1658   000FB8                     BAUDCON         equ	4024	;# 
  1659   000FB8                     BAUDCTL         equ	4024	;# 
  1660   000FBA                     CCP2CON         equ	4026	;# 
  1661   000FBB                     CCPR2           equ	4027	;# 
  1662   000FBB                     CCPR2L          equ	4027	;# 
  1663   000FBC                     CCPR2H          equ	4028	;# 
  1664   000FBD                     CCP1CON         equ	4029	;# 
  1665   000FBE                     CCPR1           equ	4030	;# 
  1666   000FBE                     CCPR1L          equ	4030	;# 
  1667   000FBF                     CCPR1H          equ	4031	;# 
  1668   000FC0                     ADCON2          equ	4032	;# 
  1669   000FC1                     ADCON1          equ	4033	;# 
  1670   000FC2                     ADCON0          equ	4034	;# 
  1671   000FC3                     ADRES           equ	4035	;# 
  1672   000FC3                     ADRESL          equ	4035	;# 
  1673   000FC4                     ADRESH          equ	4036	;# 
  1674   000FC5                     SSPCON2         equ	4037	;# 
  1675   000FC6                     SSPCON1         equ	4038	;# 
  1676   000FC7                     SSPSTAT         equ	4039	;# 
  1677   000FC8                     SSPADD          equ	4040	;# 
  1678   000FC9                     SSPBUF          equ	4041	;# 
  1679   000FCA                     T2CON           equ	4042	;# 
  1680   000FCB                     PR2             equ	4043	;# 
  1681   000FCB                     MEMCON          equ	4043	;# 
  1682   000FCC                     TMR2            equ	4044	;# 
  1683   000FCD                     T1CON           equ	4045	;# 
  1684   000FCE                     TMR1            equ	4046	;# 
  1685   000FCE                     TMR1L           equ	4046	;# 
  1686   000FCF                     TMR1H           equ	4047	;# 
  1687   000FD0                     RCON            equ	4048	;# 
  1688   000FD1                     WDTCON          equ	4049	;# 
  1689   000FD2                     HLVDCON         equ	4050	;# 
  1690   000FD2                     LVDCON          equ	4050	;# 
  1691   000FD3                     OSCCON          equ	4051	;# 
  1692   000FD5                     T0CON           equ	4053	;# 
  1693   000FD6                     TMR0            equ	4054	;# 
  1694   000FD6                     TMR0L           equ	4054	;# 
  1695   000FD7                     TMR0H           equ	4055	;# 
  1696   000FD8                     STATUS          equ	4056	;# 
  1697   000FD9                     FSR2            equ	4057	;# 
  1698   000FD9                     FSR2L           equ	4057	;# 
  1699   000FDA                     FSR2H           equ	4058	;# 
  1700   000FDB                     PLUSW2          equ	4059	;# 
  1701   000FDC                     PREINC2         equ	4060	;# 
  1702   000FDD                     POSTDEC2        equ	4061	;# 
  1703   000FDE                     POSTINC2        equ	4062	;# 
  1704   000FDF                     INDF2           equ	4063	;# 
  1705   000FE0                     BSR             equ	4064	;# 
  1706   000FE1                     FSR1            equ	4065	;# 
  1707   000FE1                     FSR1L           equ	4065	;# 
  1708   000FE2                     FSR1H           equ	4066	;# 
  1709   000FE3                     PLUSW1          equ	4067	;# 
  1710   000FE4                     PREINC1         equ	4068	;# 
  1711   000FE5                     POSTDEC1        equ	4069	;# 
  1712   000FE6                     POSTINC1        equ	4070	;# 
  1713   000FE7                     INDF1           equ	4071	;# 
  1714   000FE8                     WREG            equ	4072	;# 
  1715   000FE9                     FSR0            equ	4073	;# 
  1716   000FE9                     FSR0L           equ	4073	;# 
  1717   000FEA                     FSR0H           equ	4074	;# 
  1718   000FEB                     PLUSW0          equ	4075	;# 
  1719   000FEC                     PREINC0         equ	4076	;# 
  1720   000FED                     POSTDEC0        equ	4077	;# 
  1721   000FEE                     POSTINC0        equ	4078	;# 
  1722   000FEF                     INDF0           equ	4079	;# 
  1723   000FF0                     INTCON3         equ	4080	;# 
  1724   000FF1                     INTCON2         equ	4081	;# 
  1725   000FF2                     INTCON          equ	4082	;# 
  1726   000FF3                     PROD            equ	4083	;# 
  1727   000FF3                     PRODL           equ	4083	;# 
  1728   000FF4                     PRODH           equ	4084	;# 
  1729   000FF5                     TABLAT          equ	4085	;# 
  1730   000FF6                     TBLPTR          equ	4086	;# 
  1731   000FF6                     TBLPTRL         equ	4086	;# 
  1732   000FF7                     TBLPTRH         equ	4087	;# 
  1733   000FF8                     TBLPTRU         equ	4088	;# 
  1734   000FF9                     PCLAT           equ	4089	;# 
  1735   000FF9                     PC              equ	4089	;# 
  1736   000FF9                     PCL             equ	4089	;# 
  1737   000FFA                     PCLATH          equ	4090	;# 
  1738   000FFB                     PCLATU          equ	4091	;# 
  1739   000FFC                     STKPTR          equ	4092	;# 
  1740   000FFD                     TOS             equ	4093	;# 
  1741   000FFD                     TOSL            equ	4093	;# 
  1742   000FFE                     TOSH            equ	4094	;# 
  1743   000FFF                     TOSU            equ	4095	;# 
  1744   000F80                     PORTA           equ	3968	;# 
  1745   000F81                     PORTB           equ	3969	;# 
  1746   000F82                     PORTC           equ	3970	;# 
  1747   000F83                     PORTD           equ	3971	;# 
  1748   000F84                     PORTE           equ	3972	;# 
  1749   000F89                     LATA            equ	3977	;# 
  1750   000F8A                     LATB            equ	3978	;# 
  1751   000F8B                     LATC            equ	3979	;# 
  1752   000F8C                     LATD            equ	3980	;# 
  1753   000F8D                     LATE            equ	3981	;# 
  1754   000F92                     TRISA           equ	3986	;# 
  1755   000F92                     DDRA            equ	3986	;# 
  1756   000F93                     TRISB           equ	3987	;# 
  1757   000F93                     DDRB            equ	3987	;# 
  1758   000F94                     TRISC           equ	3988	;# 
  1759   000F94                     DDRC            equ	3988	;# 
  1760   000F95                     TRISD           equ	3989	;# 
  1761   000F95                     DDRD            equ	3989	;# 
  1762   000F96                     TRISE           equ	3990	;# 
  1763   000F96                     DDRE            equ	3990	;# 
  1764   000F9B                     OSCTUNE         equ	3995	;# 
  1765   000F9D                     PIE1            equ	3997	;# 
  1766   000F9E                     PIR1            equ	3998	;# 
  1767   000F9F                     IPR1            equ	3999	;# 
  1768   000FA0                     PIE2            equ	4000	;# 
  1769   000FA1                     PIR2            equ	4001	;# 
  1770   000FA2                     IPR2            equ	4002	;# 
  1771   000FA6                     EECON1          equ	4006	;# 
  1772   000FA7                     EECON2          equ	4007	;# 
  1773   000FA8                     EEDATA          equ	4008	;# 
  1774   000FA9                     EEADR           equ	4009	;# 
  1775   000FAA                     EEADRH          equ	4010	;# 
  1776   000FAB                     RCSTA           equ	4011	;# 
  1777   000FAB                     RCSTA1          equ	4011	;# 
  1778   000FAC                     TXSTA           equ	4012	;# 
  1779   000FAC                     TXSTA1          equ	4012	;# 
  1780   000FAD                     TXREG           equ	4013	;# 
  1781   000FAD                     TXREG1          equ	4013	;# 
  1782   000FAE                     RCREG           equ	4014	;# 
  1783   000FAE                     RCREG1          equ	4014	;# 
  1784   000FAF                     SPBRG           equ	4015	;# 
  1785   000FAF                     SPBRG1          equ	4015	;# 
  1786   000FB0                     SPBRGH          equ	4016	;# 
  1787   000FB1                     T3CON           equ	4017	;# 
  1788   000FB2                     TMR3            equ	4018	;# 
  1789   000FB2                     TMR3L           equ	4018	;# 
  1790   000FB3                     TMR3H           equ	4019	;# 
  1791   000FB4                     CMCON           equ	4020	;# 
  1792   000FB5                     CVRCON          equ	4021	;# 
  1793   000FB6                     ECCP1AS         equ	4022	;# 
  1794   000FB7                     PWM1CON         equ	4023	;# 
  1795   000FB8                     BAUDCON         equ	4024	;# 
  1796   000FB8                     BAUDCTL         equ	4024	;# 
  1797   000FBA                     CCP2CON         equ	4026	;# 
  1798   000FBB                     CCPR2           equ	4027	;# 
  1799   000FBB                     CCPR2L          equ	4027	;# 
  1800   000FBC                     CCPR2H          equ	4028	;# 
  1801   000FBD                     CCP1CON         equ	4029	;# 
  1802   000FBE                     CCPR1           equ	4030	;# 
  1803   000FBE                     CCPR1L          equ	4030	;# 
  1804   000FBF                     CCPR1H          equ	4031	;# 
  1805   000FC0                     ADCON2          equ	4032	;# 
  1806   000FC1                     ADCON1          equ	4033	;# 
  1807   000FC2                     ADCON0          equ	4034	;# 
  1808   000FC3                     ADRES           equ	4035	;# 
  1809   000FC3                     ADRESL          equ	4035	;# 
  1810   000FC4                     ADRESH          equ	4036	;# 
  1811   000FC5                     SSPCON2         equ	4037	;# 
  1812   000FC6                     SSPCON1         equ	4038	;# 
  1813   000FC7                     SSPSTAT         equ	4039	;# 
  1814   000FC8                     SSPADD          equ	4040	;# 
  1815   000FC9                     SSPBUF          equ	4041	;# 
  1816   000FCA                     T2CON           equ	4042	;# 
  1817   000FCB                     PR2             equ	4043	;# 
  1818   000FCB                     MEMCON          equ	4043	;# 
  1819   000FCC                     TMR2            equ	4044	;# 
  1820   000FCD                     T1CON           equ	4045	;# 
  1821   000FCE                     TMR1            equ	4046	;# 
  1822   000FCE                     TMR1L           equ	4046	;# 
  1823   000FCF                     TMR1H           equ	4047	;# 
  1824   000FD0                     RCON            equ	4048	;# 
  1825   000FD1                     WDTCON          equ	4049	;# 
  1826   000FD2                     HLVDCON         equ	4050	;# 
  1827   000FD2                     LVDCON          equ	4050	;# 
  1828   000FD3                     OSCCON          equ	4051	;# 
  1829   000FD5                     T0CON           equ	4053	;# 
  1830   000FD6                     TMR0            equ	4054	;# 
  1831   000FD6                     TMR0L           equ	4054	;# 
  1832   000FD7                     TMR0H           equ	4055	;# 
  1833   000FD8                     STATUS          equ	4056	;# 
  1834   000FD9                     FSR2            equ	4057	;# 
  1835   000FD9                     FSR2L           equ	4057	;# 
  1836   000FDA                     FSR2H           equ	4058	;# 
  1837   000FDB                     PLUSW2          equ	4059	;# 
  1838   000FDC                     PREINC2         equ	4060	;# 
  1839   000FDD                     POSTDEC2        equ	4061	;# 
  1840   000FDE                     POSTINC2        equ	4062	;# 
  1841   000FDF                     INDF2           equ	4063	;# 
  1842   000FE0                     BSR             equ	4064	;# 
  1843   000FE1                     FSR1            equ	4065	;# 
  1844   000FE1                     FSR1L           equ	4065	;# 
  1845   000FE2                     FSR1H           equ	4066	;# 
  1846   000FE3                     PLUSW1          equ	4067	;# 
  1847   000FE4                     PREINC1         equ	4068	;# 
  1848   000FE5                     POSTDEC1        equ	4069	;# 
  1849   000FE6                     POSTINC1        equ	4070	;# 
  1850   000FE7                     INDF1           equ	4071	;# 
  1851   000FE8                     WREG            equ	4072	;# 
  1852   000FE9                     FSR0            equ	4073	;# 
  1853   000FE9                     FSR0L           equ	4073	;# 
  1854   000FEA                     FSR0H           equ	4074	;# 
  1855   000FEB                     PLUSW0          equ	4075	;# 
  1856   000FEC                     PREINC0         equ	4076	;# 
  1857   000FED                     POSTDEC0        equ	4077	;# 
  1858   000FEE                     POSTINC0        equ	4078	;# 
  1859   000FEF                     INDF0           equ	4079	;# 
  1860   000FF0                     INTCON3         equ	4080	;# 
  1861   000FF1                     INTCON2         equ	4081	;# 
  1862   000FF2                     INTCON          equ	4082	;# 
  1863   000FF3                     PROD            equ	4083	;# 
  1864   000FF3                     PRODL           equ	4083	;# 
  1865   000FF4                     PRODH           equ	4084	;# 
  1866   000FF5                     TABLAT          equ	4085	;# 
  1867   000FF6                     TBLPTR          equ	4086	;# 
  1868   000FF6                     TBLPTRL         equ	4086	;# 
  1869   000FF7                     TBLPTRH         equ	4087	;# 
  1870   000FF8                     TBLPTRU         equ	4088	;# 
  1871   000FF9                     PCLAT           equ	4089	;# 
  1872   000FF9                     PC              equ	4089	;# 
  1873   000FF9                     PCL             equ	4089	;# 
  1874   000FFA                     PCLATH          equ	4090	;# 
  1875   000FFB                     PCLATU          equ	4091	;# 
  1876   000FFC                     STKPTR          equ	4092	;# 
  1877   000FFD                     TOS             equ	4093	;# 
  1878   000FFD                     TOSL            equ	4093	;# 
  1879   000FFE                     TOSH            equ	4094	;# 
  1880   000FFF                     TOSU            equ	4095	;# 
  1881   000F80                     PORTA           equ	3968	;# 
  1882   000F81                     PORTB           equ	3969	;# 
  1883   000F82                     PORTC           equ	3970	;# 
  1884   000F83                     PORTD           equ	3971	;# 
  1885   000F84                     PORTE           equ	3972	;# 
  1886   000F89                     LATA            equ	3977	;# 
  1887   000F8A                     LATB            equ	3978	;# 
  1888   000F8B                     LATC            equ	3979	;# 
  1889   000F8C                     LATD            equ	3980	;# 
  1890   000F8D                     LATE            equ	3981	;# 
  1891   000F92                     TRISA           equ	3986	;# 
  1892   000F92                     DDRA            equ	3986	;# 
  1893   000F93                     TRISB           equ	3987	;# 
  1894   000F93                     DDRB            equ	3987	;# 
  1895   000F94                     TRISC           equ	3988	;# 
  1896   000F94                     DDRC            equ	3988	;# 
  1897   000F95                     TRISD           equ	3989	;# 
  1898   000F95                     DDRD            equ	3989	;# 
  1899   000F96                     TRISE           equ	3990	;# 
  1900   000F96                     DDRE            equ	3990	;# 
  1901   000F9B                     OSCTUNE         equ	3995	;# 
  1902   000F9D                     PIE1            equ	3997	;# 
  1903   000F9E                     PIR1            equ	3998	;# 
  1904   000F9F                     IPR1            equ	3999	;# 
  1905   000FA0                     PIE2            equ	4000	;# 
  1906   000FA1                     PIR2            equ	4001	;# 
  1907   000FA2                     IPR2            equ	4002	;# 
  1908   000FA6                     EECON1          equ	4006	;# 
  1909   000FA7                     EECON2          equ	4007	;# 
  1910   000FA8                     EEDATA          equ	4008	;# 
  1911   000FA9                     EEADR           equ	4009	;# 
  1912   000FAA                     EEADRH          equ	4010	;# 
  1913   000FAB                     RCSTA           equ	4011	;# 
  1914   000FAB                     RCSTA1          equ	4011	;# 
  1915   000FAC                     TXSTA           equ	4012	;# 
  1916   000FAC                     TXSTA1          equ	4012	;# 
  1917   000FAD                     TXREG           equ	4013	;# 
  1918   000FAD                     TXREG1          equ	4013	;# 
  1919   000FAE                     RCREG           equ	4014	;# 
  1920   000FAE                     RCREG1          equ	4014	;# 
  1921   000FAF                     SPBRG           equ	4015	;# 
  1922   000FAF                     SPBRG1          equ	4015	;# 
  1923   000FB0                     SPBRGH          equ	4016	;# 
  1924   000FB1                     T3CON           equ	4017	;# 
  1925   000FB2                     TMR3            equ	4018	;# 
  1926   000FB2                     TMR3L           equ	4018	;# 
  1927   000FB3                     TMR3H           equ	4019	;# 
  1928   000FB4                     CMCON           equ	4020	;# 
  1929   000FB5                     CVRCON          equ	4021	;# 
  1930   000FB6                     ECCP1AS         equ	4022	;# 
  1931   000FB7                     PWM1CON         equ	4023	;# 
  1932   000FB8                     BAUDCON         equ	4024	;# 
  1933   000FB8                     BAUDCTL         equ	4024	;# 
  1934   000FBA                     CCP2CON         equ	4026	;# 
  1935   000FBB                     CCPR2           equ	4027	;# 
  1936   000FBB                     CCPR2L          equ	4027	;# 
  1937   000FBC                     CCPR2H          equ	4028	;# 
  1938   000FBD                     CCP1CON         equ	4029	;# 
  1939   000FBE                     CCPR1           equ	4030	;# 
  1940   000FBE                     CCPR1L          equ	4030	;# 
  1941   000FBF                     CCPR1H          equ	4031	;# 
  1942   000FC0                     ADCON2          equ	4032	;# 
  1943   000FC1                     ADCON1          equ	4033	;# 
  1944   000FC2                     ADCON0          equ	4034	;# 
  1945   000FC3                     ADRES           equ	4035	;# 
  1946   000FC3                     ADRESL          equ	4035	;# 
  1947   000FC4                     ADRESH          equ	4036	;# 
  1948   000FC5                     SSPCON2         equ	4037	;# 
  1949   000FC6                     SSPCON1         equ	4038	;# 
  1950   000FC7                     SSPSTAT         equ	4039	;# 
  1951   000FC8                     SSPADD          equ	4040	;# 
  1952   000FC9                     SSPBUF          equ	4041	;# 
  1953   000FCA                     T2CON           equ	4042	;# 
  1954   000FCB                     PR2             equ	4043	;# 
  1955   000FCB                     MEMCON          equ	4043	;# 
  1956   000FCC                     TMR2            equ	4044	;# 
  1957   000FCD                     T1CON           equ	4045	;# 
  1958   000FCE                     TMR1            equ	4046	;# 
  1959   000FCE                     TMR1L           equ	4046	;# 
  1960   000FCF                     TMR1H           equ	4047	;# 
  1961   000FD0                     RCON            equ	4048	;# 
  1962   000FD1                     WDTCON          equ	4049	;# 
  1963   000FD2                     HLVDCON         equ	4050	;# 
  1964   000FD2                     LVDCON          equ	4050	;# 
  1965   000FD3                     OSCCON          equ	4051	;# 
  1966   000FD5                     T0CON           equ	4053	;# 
  1967   000FD6                     TMR0            equ	4054	;# 
  1968   000FD6                     TMR0L           equ	4054	;# 
  1969   000FD7                     TMR0H           equ	4055	;# 
  1970   000FD8                     STATUS          equ	4056	;# 
  1971   000FD9                     FSR2            equ	4057	;# 
  1972   000FD9                     FSR2L           equ	4057	;# 
  1973   000FDA                     FSR2H           equ	4058	;# 
  1974   000FDB                     PLUSW2          equ	4059	;# 
  1975   000FDC                     PREINC2         equ	4060	;# 
  1976   000FDD                     POSTDEC2        equ	4061	;# 
  1977   000FDE                     POSTINC2        equ	4062	;# 
  1978   000FDF                     INDF2           equ	4063	;# 
  1979   000FE0                     BSR             equ	4064	;# 
  1980   000FE1                     FSR1            equ	4065	;# 
  1981   000FE1                     FSR1L           equ	4065	;# 
  1982   000FE2                     FSR1H           equ	4066	;# 
  1983   000FE3                     PLUSW1          equ	4067	;# 
  1984   000FE4                     PREINC1         equ	4068	;# 
  1985   000FE5                     POSTDEC1        equ	4069	;# 
  1986   000FE6                     POSTINC1        equ	4070	;# 
  1987   000FE7                     INDF1           equ	4071	;# 
  1988   000FE8                     WREG            equ	4072	;# 
  1989   000FE9                     FSR0            equ	4073	;# 
  1990   000FE9                     FSR0L           equ	4073	;# 
  1991   000FEA                     FSR0H           equ	4074	;# 
  1992   000FEB                     PLUSW0          equ	4075	;# 
  1993   000FEC                     PREINC0         equ	4076	;# 
  1994   000FED                     POSTDEC0        equ	4077	;# 
  1995   000FEE                     POSTINC0        equ	4078	;# 
  1996   000FEF                     INDF0           equ	4079	;# 
  1997   000FF0                     INTCON3         equ	4080	;# 
  1998   000FF1                     INTCON2         equ	4081	;# 
  1999   000FF2                     INTCON          equ	4082	;# 
  2000   000FF3                     PROD            equ	4083	;# 
  2001   000FF3                     PRODL           equ	4083	;# 
  2002   000FF4                     PRODH           equ	4084	;# 
  2003   000FF5                     TABLAT          equ	4085	;# 
  2004   000FF6                     TBLPTR          equ	4086	;# 
  2005   000FF6                     TBLPTRL         equ	4086	;# 
  2006   000FF7                     TBLPTRH         equ	4087	;# 
  2007   000FF8                     TBLPTRU         equ	4088	;# 
  2008   000FF9                     PCLAT           equ	4089	;# 
  2009   000FF9                     PC              equ	4089	;# 
  2010   000FF9                     PCL             equ	4089	;# 
  2011   000FFA                     PCLATH          equ	4090	;# 
  2012   000FFB                     PCLATU          equ	4091	;# 
  2013   000FFC                     STKPTR          equ	4092	;# 
  2014   000FFD                     TOS             equ	4093	;# 
  2015   000FFD                     TOSL            equ	4093	;# 
  2016   000FFE                     TOSH            equ	4094	;# 
  2017   000FFF                     TOSU            equ	4095	;# 
  2018                           
  2019                           	psect	idataCOMRAM
  2020   00108C                     __pidataCOMRAM:
  2021                           	callstack 0
  2022                           
  2023                           ;initializer for _LCD1_8Bit
  2024   00108C  42                 	db	66
  2025   00108D  4A                 	db	74
  2026   00108E  43                 	db	67
  2027   00108F  4B                 	db	75
  2028   001090  53                 	db	83
  2029   001091  5B                 	db	91
  2030   001092  63                 	db	99
  2031   001093  6B                 	db	107
  2032   001094  73                 	db	115
  2033   001095  7B                 	db	123
  2034                           
  2035                           ;initializer for _KeyPad1
  2036   001096  42                 	db	66
  2037   001097  4A                 	db	74
  2038   001098  52                 	db	82
  2039   001099  5A                 	db	90
  2040   00109A  22                 	db	34
  2041   00109B  2A                 	db	42
  2042   00109C  32                 	db	50
  2043   00109D  3A                 	db	58
  2044                           
  2045                           ;initializer for _LCD1_4Bit
  2046   00109E  41                 	db	65
  2047   00109F  49                 	db	73
  2048   0010A0  51                 	db	81
  2049   0010A1  59                 	db	89
  2050   0010A2  61                 	db	97
  2051   0010A3  69                 	db	105
  2052                           
  2053                           ;initializer for _EX_INT2
  2054   0010A4  92                 	db	low _INT2_isr
  2055   0010A5  11                 	db	high _INT2_isr
  2056   0010A6  11                 	db	17
  2057   0010A7  01                 	db	1
  2058   0010A8  02                 	db	2
  2059   0010A9  01                 	db	1
  2060                           
  2061                           ;initializer for _EX_INT1
  2062   0010AA  8E                 	db	low _INT1_isr
  2063   0010AB  11                 	db	high _INT1_isr
  2064   0010AC  09                 	db	9
  2065   0010AD  01                 	db	1
  2066   0010AE  01                 	db	1
  2067   0010AF  01                 	db	1
  2068                           
  2069                           ;initializer for _EX_INT0
  2070   0010B0  90                 	db	low _INT0_isr
  2071   0010B1  11                 	db	high _INT0_isr
  2072   0010B2  01                 	db	1
  2073   0010B3  01                 	db	1
  2074   0010B4  00                 	db	0
  2075   0010B5  01                 	db	1
  2076                           
  2077                           ;initializer for _Seg1
  2078   0010B6  41                 	db	65
  2079   0010B7  49                 	db	73
  2080   0010B8  51                 	db	81
  2081   0010B9  59                 	db	89
  2082   0010BA  00                 	db	0
  2083                           
  2084                           ;initializer for _BTN1
  2085   0010BB  01                 	db	1
  2086   0010BC  01                 	db	1
  2087   0010BD  00                 	db	0
  2088                           
  2089                           ;initializer for _Motor2
  2090   0010BE  21                 	db	33
  2091   0010BF  31                 	db	49
  2092                           
  2093                           ;initializer for _Motor1
  2094   0010C0  01                 	db	1
  2095   0010C1  11                 	db	17
  2096                           
  2097                           ;initializer for _Led3
  2098   0010C2  22                 	db	34
  2099                           
  2100                           ;initializer for _Led2
  2101   0010C3  12                 	db	18
  2102                           
  2103                           ;initializer for _Led1
  2104   0010C4  02                 	db	2
  2105                           
  2106                           	psect	smallconst
  2107   001000                     __psmallconst:
  2108                           	callstack 0
  2109   001000  00                 	db	0
  2110   001001                     _btn_Value:
  2111                           	callstack 0
  2112   001001  07                 	db	7
  2113   001002  08                 	db	8
  2114   001003  09                 	db	9
  2115   001004  2F                 	db	47
  2116   001005  04                 	db	4
  2117   001006  05                 	db	5
  2118   001007  06                 	db	6
  2119   001008  2A                 	db	42
  2120   001009  01                 	db	1
  2121   00100A  02                 	db	2
  2122   00100B  03                 	db	3
  2123   00100C  2D                 	db	45
  2124   00100D  23                 	db	35
  2125   00100E  00                 	db	0
  2126   00100F  3D                 	db	61
  2127   001010  2B                 	db	43
  2128   001011                     __end_of_btn_Value:
  2129                           	callstack 0
  2130   000FF1                     _INTCON2bits    set	4081
  2131   000FF0                     _INTCON3bits    set	4080
  2132   000FF2                     _INTCONbits     set	4082
  2133   000F84                     _PORTE          set	3972
  2134   000F83                     _PORTD          set	3971
  2135   000F82                     _PORTC          set	3970
  2136   000F81                     _PORTB          set	3969
  2137   000F80                     _PORTA          set	3968
  2138   000F8D                     _LATE           set	3981
  2139   000F8C                     _LATD           set	3980
  2140   000F8B                     _LATC           set	3979
  2141   000F8A                     _LATB           set	3978
  2142   000F89                     _LATA           set	3977
  2143   000F96                     _TRISE          set	3990
  2144   000F95                     _TRISD          set	3989
  2145   000F94                     _TRISC          set	3988
  2146   000F93                     _TRISB          set	3987
  2147   000F92                     _TRISA          set	3986
  2148   001011                     STR_1:
  2149   001011  25                 	db	37
  2150   001012  69                 	db	105	;'i'
  2151   001013  00                 	db	0
  2152   001011                     STR_2           equ	STR_1
  2153   001011                     STR_3           equ	STR_1
  2154   001014  00                 	db	0	; dummy byte at the end
  2155   000003                     __activetblptr  equ	3
  2156                           
  2157                           ; #config settings
  2158                           
  2159                           	psect	cinit
  2160   0010C6                     __pcinit:
  2161                           	callstack 0
  2162   0010C6                     start_initialization:
  2163                           	callstack 0
  2164   0010C6                     __initialization:
  2165                           	callstack 0
  2166                           
  2167                           ; Initialize objects allocated to COMRAM (57 bytes)
  2168                           ; load TBLPTR registers with __pidataCOMRAM
  2169   0010C6  0E8C               	movlw	low __pidataCOMRAM
  2170   0010C8  6EF6               	movwf	tblptrl,c
  2171   0010CA  0E10               	movlw	high __pidataCOMRAM
  2172   0010CC  6EF7               	movwf	tblptrh,c
  2173   0010CE  0E00               	movlw	low (__pidataCOMRAM shr (0+16))
  2174   0010D0  6EF8               	movwf	tblptru,c
  2175   0010D2  EE00  F001         	lfsr	0,__pdataCOMRAM
  2176   0010D6  EE10 F039          	lfsr	1,57
  2177   0010DA                     copy_data0:
  2178   0010DA  0009               	tblrd		*+
  2179   0010DC  CFF5 FFEE          	movff	tablat,postinc0
  2180   0010E0  50E5               	movf	postdec1,w,c
  2181   0010E2  50E1               	movf	fsr1l,w,c
  2182   0010E4  E1FA               	bnz	copy_data0
  2183                           
  2184                           ; Clear objects allocated to COMRAM (19 bytes)
  2185   0010E6  EE00  F03A         	lfsr	0,__pbssCOMRAM
  2186   0010EA  0E13               	movlw	19
  2187   0010EC                     clear_0:
  2188   0010EC  6AEE               	clrf	postinc0,c
  2189   0010EE  06E8               	decf	wreg,f,c
  2190   0010F0  E1FD               	bnz	clear_0
  2191   0010F2                     end_of_initialization:
  2192                           	callstack 0
  2193   0010F2                     __end_of__initialization:
  2194                           	callstack 0
  2195   0010F2  904F               	bcf	int$flags,0,c	;clear compiler interrupt flag (level 1)
  2196   0010F4  924F               	bcf	int$flags,1,c	;clear compiler interrupt flag (level 2)
  2197   0010F6  0100               	movlb	0
  2198   0010F8  EFC3  F008         	goto	_main	;jump to C main() function
  2199                           
  2200                           	psect	bssCOMRAM
  2201   00003A                     __pbssCOMRAM:
  2202                           	callstack 0
  2203   00003A                     _INT2_interruptHandler:
  2204                           	callstack 0
  2205   00003A                     	ds	2
  2206   00003C                     _INT1_interruptHandler:
  2207                           	callstack 0
  2208   00003C                     	ds	2
  2209   00003E                     _INT0_interruptHandler:
  2210                           	callstack 0
  2211   00003E                     	ds	2
  2212   000040                     _RetValue_BTN:
  2213                           	callstack 0
  2214   000040                     	ds	2
  2215   000042                     _RetValue_KeyPad:
  2216                           	callstack 0
  2217   000042                     	ds	2
  2218   000044                     HALL_Relay_turnOFF@F3108:
  2219                           	callstack 0
  2220   000044                     	ds	1
  2221   000045                     HALL_Relay_turnON@F3103:
  2222                           	callstack 0
  2223   000045                     	ds	1
  2224   000046                     HALL_Relay_init@F3098:
  2225                           	callstack 0
  2226   000046                     	ds	1
  2227   000047                     HALL_Led_trunToggle@F3119:
  2228                           	callstack 0
  2229   000047                     	ds	1
  2230   000048                     HALL_Led_trunOFF@F3114:
  2231                           	callstack 0
  2232   000048                     	ds	1
  2233   000049                     HALL_Led_trunON@F3109:
  2234                           	callstack 0
  2235   000049                     	ds	1
  2236   00004A                     HALL_Led_init@F3104:
  2237                           	callstack 0
  2238   00004A                     	ds	1
  2239   00004B                     _objPin_motor_2:
  2240                           	callstack 0
  2241   00004B                     	ds	1
  2242   00004C                     _objPin_motor_1:
  2243                           	callstack 0
  2244   00004C                     	ds	1
  2245                           
  2246                           	psect	dataCOMRAM
  2247   000001                     __pdataCOMRAM:
  2248                           	callstack 0
  2249   000001                     _LCD1_8Bit:
  2250                           	callstack 0
  2251   000001                     	ds	10
  2252   00000B                     _KeyPad1:
  2253                           	callstack 0
  2254   00000B                     	ds	8
  2255   000013                     _LCD1_4Bit:
  2256                           	callstack 0
  2257   000013                     	ds	6
  2258   000019                     _EX_INT2:
  2259                           	callstack 0
  2260   000019                     	ds	6
  2261   00001F                     _EX_INT1:
  2262                           	callstack 0
  2263   00001F                     	ds	6
  2264   000025                     _EX_INT0:
  2265                           	callstack 0
  2266   000025                     	ds	6
  2267   00002B                     _Seg1:
  2268                           	callstack 0
  2269   00002B                     	ds	5
  2270   000030                     _BTN1:
  2271                           	callstack 0
  2272   000030                     	ds	3
  2273   000033                     _Motor2:
  2274                           	callstack 0
  2275   000033                     	ds	2
  2276   000035                     _Motor1:
  2277                           	callstack 0
  2278   000035                     	ds	2
  2279   000037                     _Led3:
  2280                           	callstack 0
  2281   000037                     	ds	1
  2282   000038                     _Led2:
  2283                           	callstack 0
  2284   000038                     	ds	1
  2285   000039                     _Led1:
  2286                           	callstack 0
  2287   000039                     	ds	1
  2288                           
  2289                           	psect	cstackCOMRAM
  2290   00004D                     __pcstackCOMRAM:
  2291                           	callstack 0
  2292   00004D                     ??_MCAL_InterruptManager:
  2293                           
  2294                           ; 1 bytes @ 0x0
  2295   00004D                     	ds	2
  2296   00004F                     
  2297                           ; 1 bytes @ 0x2
  2298 ;;
  2299 ;;Main: autosize = 0, tempsize = 0, incstack = 0, save=0
  2300 ;;
  2301 ;; *************** function _main *****************
  2302 ;; Defined at:
  2303 ;;		line 9 in file "App/Main.c"
  2304 ;; Parameters:    Size  Location     Type
  2305 ;;		None
  2306 ;; Auto vars:     Size  Location     Type
  2307 ;;		None
  2308 ;; Return value:  Size  Location     Type
  2309 ;;                  1    wreg      void 
  2310 ;; Registers used:
  2311 ;;		None
  2312 ;; Tracked objects:
  2313 ;;		On entry : 0/0
  2314 ;;		On exit  : 0/0
  2315 ;;		Unchanged: 0/0
  2316 ;; Data sizes:     COMRAM   BANK0   BANK1   BANK2   BANK3   BANK4   BANK5   BANK6   BANK7   BANK8   BANK9  BANK10  BANK1
      +1  BANK12  BANK13  BANK14  BANK15
  2317 ;;      Params:         0       0       0       0       0       0       0       0       0       0       0       0       
      +0       0       0       0       0
  2318 ;;      Locals:         0       0       0       0       0       0       0       0       0       0       0       0       
      +0       0       0       0       0
  2319 ;;      Temps:          0       0       0       0       0       0       0       0       0       0       0       0       
      +0       0       0       0       0
  2320 ;;      Totals:         0       0       0       0       0       0       0       0       0       0       0       0       
      +0       0       0       0       0
  2321 ;;Total ram usage:        0 bytes
  2322 ;; Hardware stack levels required when called: 3
  2323 ;; This function calls:
  2324 ;;		Nothing
  2325 ;; This function is called by:
  2326 ;;		Startup code after reset
  2327 ;; This function uses a non-reentrant model
  2328 ;;
  2329                           
  2330                           	psect	text0
  2331   001186                     __ptext0:
  2332                           	callstack 0
  2333   001186                     _main:
  2334                           	callstack 28
  2335   001186                     l35:
  2336   001186  EFC3  F008         	goto	l35
  2337   00118A  EF07  F000         	goto	start
  2338   00118E                     __end_of_main:
  2339                           	callstack 0
  2340                           
  2341 ;; *************** function _MCAL_InterruptManager *****************
  2342 ;; Defined at:
  2343 ;;		line 24 in file "Mcal/Mcal_interrupt/Mcal_interrupt_manager.c"
  2344 ;; Parameters:    Size  Location     Type
  2345 ;;		None
  2346 ;; Auto vars:     Size  Location     Type
  2347 ;;		None
  2348 ;; Return value:  Size  Location     Type
  2349 ;;                  1    wreg      void 
  2350 ;; Registers used:
  2351 ;;		wreg, status,2, status,0, pcl, pclath, pclatu, tosl, cstack
  2352 ;; Tracked objects:
  2353 ;;		On entry : 0/0
  2354 ;;		On exit  : 0/0
  2355 ;;		Unchanged: 0/0
  2356 ;; Data sizes:     COMRAM   BANK0   BANK1   BANK2   BANK3   BANK4   BANK5   BANK6   BANK7   BANK8   BANK9  BANK10  BANK1
      +1  BANK12  BANK13  BANK14  BANK15
  2357 ;;      Params:         0       0       0       0       0       0       0       0       0       0       0       0       
      +0       0       0       0       0
  2358 ;;      Locals:         0       0       0       0       0       0       0       0       0       0       0       0       
      +0       0       0       0       0
  2359 ;;      Temps:          2       0       0       0       0       0       0       0       0       0       0       0       
      +0       0       0       0       0
  2360 ;;      Totals:         2       0       0       0       0       0       0       0       0       0       0       0       
      +0       0       0       0       0
  2361 ;;Total ram usage:        2 bytes
  2362 ;; Hardware stack levels used: 1
  2363 ;; Hardware stack levels required when called: 2
  2364 ;; This function calls:
  2365 ;;		_INT0_ISR
  2366 ;;		_INT1_ISR
  2367 ;;		_INT2_ISR
  2368 ;; This function is called by:
  2369 ;;		Interrupt level 2
  2370 ;; This function uses a non-reentrant model
  2371 ;;
  2372                           
  2373                           	psect	intcode
  2374   000008                     __pintcode:
  2375                           	callstack 0
  2376   000008                     _MCAL_InterruptManager:
  2377                           	callstack 28
  2378                           
  2379                           ;incstack = 0
  2380   000008  824F               	bsf	int$flags,1,c	;set compiler interrupt flag (level 2)
  2381   00000A  ED0B  F008         	call	int_func,f	;refresh shadow registers
  2382                           
  2383                           	psect	intcode_body
  2384   001016                     __pintcode_body:
  2385                           	callstack 28
  2386   001016                     int_func:
  2387                           	callstack 28
  2388   001016  0006               	pop		; remove dummy address from shadow register refresh
  2389   001018  CFFA F04D          	movff	pclath,??_MCAL_InterruptManager
  2390   00101C  CFFB F04E          	movff	pclatu,??_MCAL_InterruptManager+1
  2391   001020                     
  2392                           ;Mcal/Mcal_interrupt/Mcal_interrupt_manager.c: 25:     if((1 == INTCONbits.INT0IE) && (1
      +                           == INTCONbits.INT0IF)) {
  2393   001020  A8F2               	btfss	242,4,c	;volatile
  2394   001022  EF15  F008         	goto	i2u159_41
  2395   001026  EF17  F008         	goto	i2u159_40
  2396   00102A                     i2u159_41:
  2397   00102A  EF20  F008         	goto	i2l2838
  2398   00102E                     i2u159_40:
  2399   00102E  A2F2               	btfss	242,1,c	;volatile
  2400   001030  EF1C  F008         	goto	i2u160_41
  2401   001034  EF1E  F008         	goto	i2u160_40
  2402   001038                     i2u160_41:
  2403   001038  EF20  F008         	goto	i2l2838
  2404   00103C                     i2u160_40:
  2405   00103C                     
  2406                           ;Mcal/Mcal_interrupt/Mcal_interrupt_manager.c: 26:         INT0_ISR();
  2407   00103C  ECAC  F008         	call	_INT0_ISR	;wreg free
  2408   001040                     i2l2838:
  2409                           
  2410                           ;Mcal/Mcal_interrupt/Mcal_interrupt_manager.c: 28:     if((1 == INTCON3bits.INT1IE) && (
      +                          1 == INTCON3bits.INT1IF)) {
  2411   001040  A6F0               	btfss	240,3,c	;volatile
  2412   001042  EF25  F008         	goto	i2u161_41
  2413   001046  EF27  F008         	goto	i2u161_40
  2414   00104A                     i2u161_41:
  2415   00104A  EF30  F008         	goto	i2l2844
  2416   00104E                     i2u161_40:
  2417   00104E  A0F0               	btfss	240,0,c	;volatile
  2418   001050  EF2C  F008         	goto	i2u162_41
  2419   001054  EF2E  F008         	goto	i2u162_40
  2420   001058                     i2u162_41:
  2421   001058  EF30  F008         	goto	i2l2844
  2422   00105C                     i2u162_40:
  2423   00105C                     
  2424                           ;Mcal/Mcal_interrupt/Mcal_interrupt_manager.c: 29:         INT1_ISR();
  2425   00105C  EC95  F008         	call	_INT1_ISR	;wreg free
  2426   001060                     i2l2844:
  2427                           
  2428                           ;Mcal/Mcal_interrupt/Mcal_interrupt_manager.c: 31:     if((1 == INTCON3bits.INT2IE) && (
      +                          1 == INTCON3bits.INT2IF)) {
  2429   001060  A8F0               	btfss	240,4,c	;volatile
  2430   001062  EF35  F008         	goto	i2u163_41
  2431   001066  EF37  F008         	goto	i2u163_40
  2432   00106A                     i2u163_41:
  2433   00106A  EF40  F008         	goto	i2l819
  2434   00106E                     i2u163_40:
  2435   00106E  A2F0               	btfss	240,1,c	;volatile
  2436   001070  EF3C  F008         	goto	i2u164_41
  2437   001074  EF3E  F008         	goto	i2u164_40
  2438   001078                     i2u164_41:
  2439   001078  EF40  F008         	goto	i2l819
  2440   00107C                     i2u164_40:
  2441   00107C                     
  2442                           ;Mcal/Mcal_interrupt/Mcal_interrupt_manager.c: 32:         INT2_ISR();
  2443   00107C  EC7E  F008         	call	_INT2_ISR	;wreg free
  2444   001080                     i2l819:
  2445   001080  C04E  FFFB         	movff	??_MCAL_InterruptManager+1,pclatu
  2446   001084  C04D  FFFA         	movff	??_MCAL_InterruptManager,pclath
  2447   001088  924F               	bcf	int$flags,1,c	;clear compiler interrupt flag (level 2)
  2448   00108A  0011               	retfie		f
  2449   00108C                     __end_of_MCAL_InterruptManager:
  2450                           	callstack 0
  2451                           
  2452 ;; *************** function _INT2_ISR *****************
  2453 ;; Defined at:
  2454 ;;		line 94 in file "Mcal/Mcal_interrupt/Mcal_external_interrupt.c"
  2455 ;; Parameters:    Size  Location     Type
  2456 ;;		None
  2457 ;; Auto vars:     Size  Location     Type
  2458 ;;		None
  2459 ;; Return value:  Size  Location     Type
  2460 ;;                  1    wreg      void 
  2461 ;; Registers used:
  2462 ;;		wreg, status,2, status,0, pcl, pclath, pclatu, tosl, cstack
  2463 ;; Tracked objects:
  2464 ;;		On entry : 0/0
  2465 ;;		On exit  : 0/0
  2466 ;;		Unchanged: 0/0
  2467 ;; Data sizes:     COMRAM   BANK0   BANK1   BANK2   BANK3   BANK4   BANK5   BANK6   BANK7   BANK8   BANK9  BANK10  BANK1
      +1  BANK12  BANK13  BANK14  BANK15
  2468 ;;      Params:         0       0       0       0       0       0       0       0       0       0       0       0       
      +0       0       0       0       0
  2469 ;;      Locals:         0       0       0       0       0       0       0       0       0       0       0       0       
      +0       0       0       0       0
  2470 ;;      Temps:          0       0       0       0       0       0       0       0       0       0       0       0       
      +0       0       0       0       0
  2471 ;;      Totals:         0       0       0       0       0       0       0       0       0       0       0       0       
      +0       0       0       0       0
  2472 ;;Total ram usage:        0 bytes
  2473 ;; Hardware stack levels used: 1
  2474 ;; Hardware stack levels required when called: 1
  2475 ;; This function calls:
  2476 ;;		NULL
  2477 ;;		_INT0_isr
  2478 ;;		_INT1_isr
  2479 ;;		_INT2_isr
  2480 ;; This function is called by:
  2481 ;;		_MCAL_InterruptManager
  2482 ;; This function uses a non-reentrant model
  2483 ;;
  2484                           
  2485                           	psect	text2
  2486   0010FC                     __ptext2:
  2487                           	callstack 0
  2488   0010FC                     _INT2_ISR:
  2489                           	callstack 28
  2490   0010FC                     
  2491                           ;Mcal/Mcal_interrupt/Mcal_external_interrupt.c: 96:     (INTCON3bits.INT2IF = 0);
  2492   0010FC  92F0               	bcf	240,1,c	;volatile
  2493   0010FE                     
  2494                           ;Mcal/Mcal_interrupt/Mcal_external_interrupt.c: 100:     if(INT2_interruptHandler) {
  2495   0010FE  503A               	movf	_INT2_interruptHandler^0,w,c
  2496   001100  103B               	iorwf	(_INT2_interruptHandler+1)^0,w,c
  2497   001102  B4D8               	btfsc	status,2,c
  2498   001104  EF86  F008         	goto	i2u40_41
  2499   001108  EF88  F008         	goto	i2u40_40
  2500   00110C                     i2u40_41:
  2501   00110C  EF94  F008         	goto	i2l696
  2502   001110                     i2u40_40:
  2503   001110                     
  2504                           ;Mcal/Mcal_interrupt/Mcal_external_interrupt.c: 101:         INT2_interruptHandler();
  2505   001110  D802               	call	i2u41_48
  2506   001112  EF94  F008         	goto	i2u41_49
  2507   001116                     i2u41_48:
  2508   001116  0005               	push	
  2509   001118  6EFA               	movwf	pclath,c
  2510   00111A  503A               	movf	_INT2_interruptHandler^0,w,c
  2511   00111C  6EFD               	movwf	tosl,c
  2512   00111E  503B               	movf	(_INT2_interruptHandler+1)^0,w,c
  2513   001120  6EFE               	movwf	tosh,c
  2514   001122  6AFF               	clrf	tosu,c
  2515   001124  50FA               	movf	pclath,w,c
  2516   001126  0012               	return		;indir
  2517   001128                     i2u41_49:
  2518   001128                     i2l696:
  2519   001128  0012               	return		;funcret
  2520   00112A                     __end_of_INT2_ISR:
  2521                           	callstack 0
  2522                           
  2523 ;; *************** function _INT1_ISR *****************
  2524 ;; Defined at:
  2525 ;;		line 80 in file "Mcal/Mcal_interrupt/Mcal_external_interrupt.c"
  2526 ;; Parameters:    Size  Location     Type
  2527 ;;		None
  2528 ;; Auto vars:     Size  Location     Type
  2529 ;;		None
  2530 ;; Return value:  Size  Location     Type
  2531 ;;                  1    wreg      void 
  2532 ;; Registers used:
  2533 ;;		wreg, status,2, status,0, pcl, pclath, pclatu, tosl, cstack
  2534 ;; Tracked objects:
  2535 ;;		On entry : 0/0
  2536 ;;		On exit  : 0/0
  2537 ;;		Unchanged: 0/0
  2538 ;; Data sizes:     COMRAM   BANK0   BANK1   BANK2   BANK3   BANK4   BANK5   BANK6   BANK7   BANK8   BANK9  BANK10  BANK1
      +1  BANK12  BANK13  BANK14  BANK15
  2539 ;;      Params:         0       0       0       0       0       0       0       0       0       0       0       0       
      +0       0       0       0       0
  2540 ;;      Locals:         0       0       0       0       0       0       0       0       0       0       0       0       
      +0       0       0       0       0
  2541 ;;      Temps:          0       0       0       0       0       0       0       0       0       0       0       0       
      +0       0       0       0       0
  2542 ;;      Totals:         0       0       0       0       0       0       0       0       0       0       0       0       
      +0       0       0       0       0
  2543 ;;Total ram usage:        0 bytes
  2544 ;; Hardware stack levels used: 1
  2545 ;; Hardware stack levels required when called: 1
  2546 ;; This function calls:
  2547 ;;		NULL
  2548 ;;		_INT0_isr
  2549 ;;		_INT1_isr
  2550 ;;		_INT2_isr
  2551 ;; This function is called by:
  2552 ;;		_MCAL_InterruptManager
  2553 ;; This function uses a non-reentrant model
  2554 ;;
  2555                           
  2556                           	psect	text3
  2557   00112A                     __ptext3:
  2558                           	callstack 0
  2559   00112A                     _INT1_ISR:
  2560                           	callstack 28
  2561   00112A                     
  2562                           ;Mcal/Mcal_interrupt/Mcal_external_interrupt.c: 82:     (INTCON3bits.INT1IF = 0);
  2563   00112A  90F0               	bcf	240,0,c	;volatile
  2564   00112C                     
  2565                           ;Mcal/Mcal_interrupt/Mcal_external_interrupt.c: 86:     if(INT1_interruptHandler) {
  2566   00112C  503C               	movf	_INT1_interruptHandler^0,w,c
  2567   00112E  103D               	iorwf	(_INT1_interruptHandler+1)^0,w,c
  2568   001130  B4D8               	btfsc	status,2,c
  2569   001132  EF9D  F008         	goto	i2u38_41
  2570   001136  EF9F  F008         	goto	i2u38_40
  2571   00113A                     i2u38_41:
  2572   00113A  EFAB  F008         	goto	i2l691
  2573   00113E                     i2u38_40:
  2574   00113E                     
  2575                           ;Mcal/Mcal_interrupt/Mcal_external_interrupt.c: 87:         INT1_interruptHandler();
  2576   00113E  D802               	call	i2u39_48
  2577   001140  EFAB  F008         	goto	i2u39_49
  2578   001144                     i2u39_48:
  2579   001144  0005               	push	
  2580   001146  6EFA               	movwf	pclath,c
  2581   001148  503C               	movf	_INT1_interruptHandler^0,w,c
  2582   00114A  6EFD               	movwf	tosl,c
  2583   00114C  503D               	movf	(_INT1_interruptHandler+1)^0,w,c
  2584   00114E  6EFE               	movwf	tosh,c
  2585   001150  6AFF               	clrf	tosu,c
  2586   001152  50FA               	movf	pclath,w,c
  2587   001154  0012               	return		;indir
  2588   001156                     i2u39_49:
  2589   001156                     i2l691:
  2590   001156  0012               	return		;funcret
  2591   001158                     __end_of_INT1_ISR:
  2592                           	callstack 0
  2593                           
  2594 ;; *************** function _INT0_ISR *****************
  2595 ;; Defined at:
  2596 ;;		line 66 in file "Mcal/Mcal_interrupt/Mcal_external_interrupt.c"
  2597 ;; Parameters:    Size  Location     Type
  2598 ;;		None
  2599 ;; Auto vars:     Size  Location     Type
  2600 ;;		None
  2601 ;; Return value:  Size  Location     Type
  2602 ;;                  1    wreg      void 
  2603 ;; Registers used:
  2604 ;;		wreg, status,2, status,0, pcl, pclath, pclatu, tosl, cstack
  2605 ;; Tracked objects:
  2606 ;;		On entry : 0/0
  2607 ;;		On exit  : 0/0
  2608 ;;		Unchanged: 0/0
  2609 ;; Data sizes:     COMRAM   BANK0   BANK1   BANK2   BANK3   BANK4   BANK5   BANK6   BANK7   BANK8   BANK9  BANK10  BANK1
      +1  BANK12  BANK13  BANK14  BANK15
  2610 ;;      Params:         0       0       0       0       0       0       0       0       0       0       0       0       
      +0       0       0       0       0
  2611 ;;      Locals:         0       0       0       0       0       0       0       0       0       0       0       0       
      +0       0       0       0       0
  2612 ;;      Temps:          0       0       0       0       0       0       0       0       0       0       0       0       
      +0       0       0       0       0
  2613 ;;      Totals:         0       0       0       0       0       0       0       0       0       0       0       0       
      +0       0       0       0       0
  2614 ;;Total ram usage:        0 bytes
  2615 ;; Hardware stack levels used: 1
  2616 ;; Hardware stack levels required when called: 1
  2617 ;; This function calls:
  2618 ;;		NULL
  2619 ;;		_INT0_isr
  2620 ;;		_INT1_isr
  2621 ;;		_INT2_isr
  2622 ;; This function is called by:
  2623 ;;		_MCAL_InterruptManager
  2624 ;; This function uses a non-reentrant model
  2625 ;;
  2626                           
  2627                           	psect	text4
  2628   001158                     __ptext4:
  2629                           	callstack 0
  2630   001158                     _INT0_ISR:
  2631                           	callstack 28
  2632   001158                     
  2633                           ;Mcal/Mcal_interrupt/Mcal_external_interrupt.c: 68:     (INTCONbits.INT0IF = 0);
  2634   001158  92F2               	bcf	242,1,c	;volatile
  2635   00115A                     
  2636                           ;Mcal/Mcal_interrupt/Mcal_external_interrupt.c: 72:     if(INT0_interruptHandler) {
  2637   00115A  503E               	movf	_INT0_interruptHandler^0,w,c
  2638   00115C  103F               	iorwf	(_INT0_interruptHandler+1)^0,w,c
  2639   00115E  B4D8               	btfsc	status,2,c
  2640   001160  EFB4  F008         	goto	i2u36_41
  2641   001164  EFB6  F008         	goto	i2u36_40
  2642   001168                     i2u36_41:
  2643   001168  EFC2  F008         	goto	i2l686
  2644   00116C                     i2u36_40:
  2645   00116C                     
  2646                           ;Mcal/Mcal_interrupt/Mcal_external_interrupt.c: 73:         INT0_interruptHandler();
  2647   00116C  D802               	call	i2u37_48
  2648   00116E  EFC2  F008         	goto	i2u37_49
  2649   001172                     i2u37_48:
  2650   001172  0005               	push	
  2651   001174  6EFA               	movwf	pclath,c
  2652   001176  503E               	movf	_INT0_interruptHandler^0,w,c
  2653   001178  6EFD               	movwf	tosl,c
  2654   00117A  503F               	movf	(_INT0_interruptHandler+1)^0,w,c
  2655   00117C  6EFE               	movwf	tosh,c
  2656   00117E  6AFF               	clrf	tosu,c
  2657   001180  50FA               	movf	pclath,w,c
  2658   001182  0012               	return		;indir
  2659   001184                     i2u37_49:
  2660   001184                     i2l686:
  2661   001184  0012               	return		;funcret
  2662   001186                     __end_of_INT0_ISR:
  2663                           	callstack 0
  2664                           
  2665 ;; *************** function _INT1_isr *****************
  2666 ;; Defined at:
  2667 ;;		line 21 in file "App/Main.c"
  2668 ;; Parameters:    Size  Location     Type
  2669 ;;		None
  2670 ;; Auto vars:     Size  Location     Type
  2671 ;;		None
  2672 ;; Return value:  Size  Location     Type
  2673 ;;                  1    wreg      void 
  2674 ;; Registers used:
  2675 ;;		None
  2676 ;; Tracked objects:
  2677 ;;		On entry : 0/0
  2678 ;;		On exit  : 0/0
  2679 ;;		Unchanged: 0/0
  2680 ;; Data sizes:     COMRAM   BANK0   BANK1   BANK2   BANK3   BANK4   BANK5   BANK6   BANK7   BANK8   BANK9  BANK10  BANK1
      +1  BANK12  BANK13  BANK14  BANK15
  2681 ;;      Params:         0       0       0       0       0       0       0       0       0       0       0       0       
      +0       0       0       0       0
  2682 ;;      Locals:         0       0       0       0       0       0       0       0       0       0       0       0       
      +0       0       0       0       0
  2683 ;;      Temps:          0       0       0       0       0       0       0       0       0       0       0       0       
      +0       0       0       0       0
  2684 ;;      Totals:         0       0       0       0       0       0       0       0       0       0       0       0       
      +0       0       0       0       0
  2685 ;;Total ram usage:        0 bytes
  2686 ;; Hardware stack levels used: 1
  2687 ;; This function calls:
  2688 ;;		Nothing
  2689 ;; This function is called by:
  2690 ;;		_INT0_ISR
  2691 ;;		_INT1_ISR
  2692 ;;		_INT2_ISR
  2693 ;; This function uses a non-reentrant model
  2694 ;;
  2695                           
  2696                           	psect	text5
  2697   00118E                     __ptext5:
  2698                           	callstack 0
  2699   00118E                     _INT1_isr:
  2700                           	callstack 28
  2701   00118E  0012               	return		;funcret
  2702   001190                     __end_of_INT1_isr:
  2703                           	callstack 0
  2704                           
  2705 ;; *************** function _INT0_isr *****************
  2706 ;; Defined at:
  2707 ;;		line 16 in file "App/Main.c"
  2708 ;; Parameters:    Size  Location     Type
  2709 ;;		None
  2710 ;; Auto vars:     Size  Location     Type
  2711 ;;		None
  2712 ;; Return value:  Size  Location     Type
  2713 ;;                  1    wreg      void 
  2714 ;; Registers used:
  2715 ;;		None
  2716 ;; Tracked objects:
  2717 ;;		On entry : 0/0
  2718 ;;		On exit  : 0/0
  2719 ;;		Unchanged: 0/0
  2720 ;; Data sizes:     COMRAM   BANK0   BANK1   BANK2   BANK3   BANK4   BANK5   BANK6   BANK7   BANK8   BANK9  BANK10  BANK1
      +1  BANK12  BANK13  BANK14  BANK15
  2721 ;;      Params:         0       0       0       0       0       0       0       0       0       0       0       0       
      +0       0       0       0       0
  2722 ;;      Locals:         0       0       0       0       0       0       0       0       0       0       0       0       
      +0       0       0       0       0
  2723 ;;      Temps:          0       0       0       0       0       0       0       0       0       0       0       0       
      +0       0       0       0       0
  2724 ;;      Totals:         0       0       0       0       0       0       0       0       0       0       0       0       
      +0       0       0       0       0
  2725 ;;Total ram usage:        0 bytes
  2726 ;; Hardware stack levels used: 1
  2727 ;; This function calls:
  2728 ;;		Nothing
  2729 ;; This function is called by:
  2730 ;;		_INT0_ISR
  2731 ;;		_INT1_ISR
  2732 ;;		_INT2_ISR
  2733 ;; This function uses a non-reentrant model
  2734 ;;
  2735                           
  2736                           	psect	text6
  2737   001190                     __ptext6:
  2738                           	callstack 0
  2739   001190                     _INT0_isr:
  2740                           	callstack 28
  2741   001190  0012               	return		;funcret
  2742   001192                     __end_of_INT0_isr:
  2743                           	callstack 0
  2744                           
  2745 ;; *************** function _INT2_isr *****************
  2746 ;; Defined at:
  2747 ;;		line 26 in file "App/Main.c"
  2748 ;; Parameters:    Size  Location     Type
  2749 ;;		None
  2750 ;; Auto vars:     Size  Location     Type
  2751 ;;		None
  2752 ;; Return value:  Size  Location     Type
  2753 ;;                  1    wreg      void 
  2754 ;; Registers used:
  2755 ;;		None
  2756 ;; Tracked objects:
  2757 ;;		On entry : 0/0
  2758 ;;		On exit  : 0/0
  2759 ;;		Unchanged: 0/0
  2760 ;; Data sizes:     COMRAM   BANK0   BANK1   BANK2   BANK3   BANK4   BANK5   BANK6   BANK7   BANK8   BANK9  BANK10  BANK1
      +1  BANK12  BANK13  BANK14  BANK15
  2761 ;;      Params:         0       0       0       0       0       0       0       0       0       0       0       0       
      +0       0       0       0       0
  2762 ;;      Locals:         0       0       0       0       0       0       0       0       0       0       0       0       
      +0       0       0       0       0
  2763 ;;      Temps:          0       0       0       0       0       0       0       0       0       0       0       0       
      +0       0       0       0       0
  2764 ;;      Totals:         0       0       0       0       0       0       0       0       0       0       0       0       
      +0       0       0       0       0
  2765 ;;Total ram usage:        0 bytes
  2766 ;; Hardware stack levels used: 1
  2767 ;; This function calls:
  2768 ;;		Nothing
  2769 ;; This function is called by:
  2770 ;;		_INT0_ISR
  2771 ;;		_INT1_ISR
  2772 ;;		_INT2_ISR
  2773 ;; This function uses a non-reentrant model
  2774 ;;
  2775                           
  2776                           	psect	text7
  2777   001192                     __ptext7:
  2778                           	callstack 0
  2779   001192                     _INT2_isr:
  2780                           	callstack 28
  2781   001192  0012               	return		;funcret
  2782   001194                     __end_of_INT2_isr:
  2783                           	callstack 0
  2784                           
  2785                           	psect	rparam
  2786   000001                     ___rparam_used  equ	1
  2787   000000                     ___param_bank   equ	0
  2788   000000                     __Lparam        equ	__Lrparam
  2789   000000                     __Hparam        equ	__Hrparam
  2790                           
  2791                           	psect	temp
  2792   00004F                     btemp:
  2793                           	callstack 0
  2794   00004F                     	ds	1
  2795   00004F                     int$flags       set	btemp
  2796   000050                     wtemp8          set	btemp+1
  2797   000050                     ttemp5          set	btemp+1
  2798   000053                     ttemp6          set	btemp+4
  2799   000057                     ttemp7          set	btemp+8
  2800                           
  2801                           	psect	config
  2802                           
  2803                           ; Padding undefined space
  2804   300000                     	org	3145728
  2805   300000  FF                 	db	255
  2806                           
  2807                           ;Config register CONFIG1H @ 0x300001
  2808                           ;	Oscillator Selection bits
  2809                           ;	OSC = HS, HS oscillator
  2810                           ;	Fail-Safe Clock Monitor Enable bit
  2811                           ;	FCMEN = OFF, Fail-Safe Clock Monitor disabled
  2812                           ;	Internal/External Oscillator Switchover bit
  2813                           ;	IESO = OFF, Oscillator Switchover mode disabled
  2814   300001                     	org	3145729
  2815   300001  02                 	db	2
  2816                           
  2817                           ;Config register CONFIG2L @ 0x300002
  2818                           ;	Power-up Timer Enable bit
  2819                           ;	PWRT = OFF, PWRT disabled
  2820                           ;	Brown-out Reset Enable bits
  2821                           ;	BOREN = OFF, Brown-out Reset disabled in hardware and software
  2822                           ;	Brown Out Reset Voltage bits
  2823                           ;	BORV = 1, 
  2824   300002                     	org	3145730
  2825   300002  09                 	db	9
  2826                           
  2827                           ;Config register CONFIG2H @ 0x300003
  2828                           ;	Watchdog Timer Enable bit
  2829                           ;	WDT = OFF, WDT disabled (control is placed on the SWDTEN bit)
  2830                           ;	Watchdog Timer Postscale Select bits
  2831                           ;	WDTPS = 32768, 1:32768
  2832   300003                     	org	3145731
  2833   300003  1E                 	db	30
  2834                           
  2835                           ; Padding undefined space
  2836   300004                     	org	3145732
  2837   300004  FF                 	db	255
  2838                           
  2839                           ;Config register CONFIG3H @ 0x300005
  2840                           ;	CCP2 MUX bit
  2841                           ;	CCP2MX = PORTC, CCP2 input/output is multiplexed with RC1
  2842                           ;	PORTB A/D Enable bit
  2843                           ;	PBADEN = OFF, PORTB<4:0> pins are configured as digital I/O on Reset
  2844                           ;	Low-Power Timer1 Oscillator Enable bit
  2845                           ;	LPT1OSC = OFF, Timer1 configured for higher power operation
  2846                           ;	MCLR Pin Enable bit
  2847                           ;	MCLRE = ON, MCLR pin enabled; RE3 input pin disabled
  2848   300005                     	org	3145733
  2849   300005  81                 	db	129
  2850                           
  2851                           ;Config register CONFIG4L @ 0x300006
  2852                           ;	Stack Full/Underflow Reset Enable bit
  2853                           ;	STVREN = ON, Stack full/underflow will cause Reset
  2854                           ;	Single-Supply ICSP Enable bit
  2855                           ;	LVP = OFF, Single-Supply ICSP disabled
  2856                           ;	Extended Instruction Set Enable bit
  2857                           ;	XINST = OFF, Instruction set extension and Indexed Addressing mode disabled (Legacy mo
      +                          de)
  2858                           ;	Background Debugger Enable bit
  2859                           ;	DEBUG = 0x1, unprogrammed default
  2860   300006                     	org	3145734
  2861   300006  81                 	db	129
  2862                           
  2863                           ; Padding undefined space
  2864   300007                     	org	3145735
  2865   300007  FF                 	db	255
  2866                           
  2867                           ;Config register CONFIG5L @ 0x300008
  2868                           ;	Code Protection bit
  2869                           ;	CP0 = OFF, Block 0 (000800-003FFFh) not code-protected
  2870                           ;	Code Protection bit
  2871                           ;	CP1 = OFF, Block 1 (004000-007FFFh) not code-protected
  2872                           ;	Code Protection bit
  2873                           ;	CP2 = OFF, Block 2 (008000-00BFFFh) not code-protected
  2874                           ;	Code Protection bit
  2875                           ;	CP3 = OFF, Block 3 (00C000-00FFFFh) not code-protected
  2876   300008                     	org	3145736
  2877   300008  0F                 	db	15
  2878                           
  2879                           ;Config register CONFIG5H @ 0x300009
  2880                           ;	Boot Block Code Protection bit
  2881                           ;	CPB = OFF, Boot block (000000-0007FFh) not code-protected
  2882                           ;	Data EEPROM Code Protection bit
  2883                           ;	CPD = OFF, Data EEPROM not code-protected
  2884   300009                     	org	3145737
  2885   300009  C0                 	db	192
  2886                           
  2887                           ;Config register CONFIG6L @ 0x30000A
  2888                           ;	Write Protection bit
  2889                           ;	WRT0 = OFF, Block 0 (000800-003FFFh) not write-protected
  2890                           ;	Write Protection bit
  2891                           ;	WRT1 = OFF, Block 1 (004000-007FFFh) not write-protected
  2892                           ;	Write Protection bit
  2893                           ;	WRT2 = OFF, Block 2 (008000-00BFFFh) not write-protected
  2894                           ;	Write Protection bit
  2895                           ;	WRT3 = OFF, Block 3 (00C000-00FFFFh) not write-protected
  2896   30000A                     	org	3145738
  2897   30000A  0F                 	db	15
  2898                           
  2899                           ;Config register CONFIG6H @ 0x30000B
  2900                           ;	Configuration Register Write Protection bit
  2901                           ;	WRTC = OFF, Configuration registers (300000-3000FFh) not write-protected
  2902                           ;	Boot Block Write Protection bit
  2903                           ;	WRTB = OFF, Boot Block (000000-0007FFh) not write-protected
  2904                           ;	Data EEPROM Write Protection bit
  2905                           ;	WRTD = OFF, Data EEPROM not write-protected
  2906   30000B                     	org	3145739
  2907   30000B  E0                 	db	224
  2908                           
  2909                           ;Config register CONFIG7L @ 0x30000C
  2910                           ;	Table Read Protection bit
  2911                           ;	EBTR0 = OFF, Block 0 (000800-003FFFh) not protected from table reads executed in other
      +                           blocks
  2912                           ;	Table Read Protection bit
  2913                           ;	EBTR1 = OFF, Block 1 (004000-007FFFh) not protected from table reads executed in other
      +                           blocks
  2914                           ;	Table Read Protection bit
  2915                           ;	EBTR2 = OFF, Block 2 (008000-00BFFFh) not protected from table reads executed in other
      +                           blocks
  2916                           ;	Table Read Protection bit
  2917                           ;	EBTR3 = OFF, Block 3 (00C000-00FFFFh) not protected from table reads executed in other
      +                           blocks
  2918   30000C                     	org	3145740
  2919   30000C  0F                 	db	15
  2920                           
  2921                           ;Config register CONFIG7H @ 0x30000D
  2922                           ;	Boot Block Table Read Protection bit
  2923                           ;	EBTRB = OFF, Boot Block (000000-0007FFh) not protected from table reads executed in ot
      +                          her blocks
  2924   30000D                     	org	3145741
  2925   30000D  40                 	db	64
  2926                           tosu	equ	0xFFF
  2927                           tosh	equ	0xFFE
  2928                           tosl	equ	0xFFD
  2929                           stkptr	equ	0xFFC
  2930                           pclatu	equ	0xFFB
  2931                           pclath	equ	0xFFA
  2932                           pcl	equ	0xFF9
  2933                           tblptru	equ	0xFF8
  2934                           tblptrh	equ	0xFF7
  2935                           tblptrl	equ	0xFF6
  2936                           tablat	equ	0xFF5
  2937                           prodh	equ	0xFF4
  2938                           prodl	equ	0xFF3
  2939                           indf0	equ	0xFEF
  2940                           postinc0	equ	0xFEE
  2941                           postdec0	equ	0xFED
  2942                           preinc0	equ	0xFEC
  2943                           plusw0	equ	0xFEB
  2944                           fsr0h	equ	0xFEA
  2945                           fsr0l	equ	0xFE9
  2946                           wreg	equ	0xFE8
  2947                           indf1	equ	0xFE7
  2948                           postinc1	equ	0xFE6
  2949                           postdec1	equ	0xFE5
  2950                           preinc1	equ	0xFE4
  2951                           plusw1	equ	0xFE3
  2952                           fsr1h	equ	0xFE2
  2953                           fsr1l	equ	0xFE1
  2954                           bsr	equ	0xFE0
  2955                           indf2	equ	0xFDF
  2956                           postinc2	equ	0xFDE
  2957                           postdec2	equ	0xFDD
  2958                           preinc2	equ	0xFDC
  2959                           plusw2	equ	0xFDB
  2960                           fsr2h	equ	0xFDA
  2961                           fsr2l	equ	0xFD9
  2962                           status	equ	0xFD8

Data Sizes:
    Strings     3
    Constant    16
    Data        57
    BSS         19
    Persistent  0
    Stack       0

Auto Spaces:
    Space          Size  Autos    Used
    COMRAM          126      2      78
    BANK0           128      0       0
    BANK1           256      0       0
    BANK2           256      0       0
    BANK3           256      0       0
    BANK4           256      0       0
    BANK5           256      0       0
    BANK6           256      0       0
    BANK7           256      0       0
    BANK8           256      0       0
    BANK9           256      0       0
    BANK10          256      0       0
    BANK11          256      0       0
    BANK12          256      0       0
    BANK13          256      0       0
    BANK14          256      0       0
    BANK15          128      0       0

Pointer List with Targets:

    EX_INT0$EX_InterruptHandler	PTR FTN()void  size(2) Largest target is 1
		 -> INT0_isr(), INT1_isr(), INT2_isr(), 

    EX_INT1$EX_InterruptHandler	PTR FTN()void  size(2) Largest target is 1
		 -> INT0_isr(), INT1_isr(), INT2_isr(), 

    EX_INT2$EX_InterruptHandler	PTR FTN()void  size(2) Largest target is 1
		 -> INT0_isr(), INT1_isr(), INT2_isr(), 

    f$.$buffer	PTR unsigned char  size(2) Largest target is 0

    f$.$source	PTR const unsigned char  size(2) Largest target is 0

    INT0_interruptHandler	PTR FTN()void  size(2) Largest target is 1
		 -> INT0_isr(), INT1_isr(), INT2_isr(), NULL(), 

    INT1_interruptHandler	PTR FTN()void  size(2) Largest target is 1
		 -> INT0_isr(), INT1_isr(), INT2_isr(), NULL(), 

    INT2_interruptHandler	PTR FTN()void  size(2) Largest target is 1
		 -> INT0_isr(), INT1_isr(), INT2_isr(), NULL(), 

    INTERRUPT_INTx_ClearFlag@copyINTx$EX_InterruptHandler	PTR FTN()void  size(2) Largest target is 1
		 -> INT0_isr(), INT1_isr(), INT2_isr(), 

    INTERRUPT_INTx_Disable@copyINTx$EX_InterruptHandler	PTR FTN()void  size(2) Largest target is 1
		 -> INT0_isr(), INT1_isr(), INT2_isr(), 

    INTERRUPT_INTx_EdgInit@copyINTx$EX_InterruptHandler	PTR FTN()void  size(2) Largest target is 1
		 -> INT0_isr(), INT1_isr(), INT2_isr(), 

    INTERRUPT_INTx_Enable@copyINTx$EX_InterruptHandler	PTR FTN()void  size(2) Largest target is 1
		 -> INT0_isr(), INT1_isr(), INT2_isr(), 

    INTERRUPT_INTx_PinInit@copyINTx$EX_InterruptHandler	PTR FTN()void  size(2) Largest target is 1
		 -> INT0_isr(), INT1_isr(), INT2_isr(), 

    INTERRUPT_INTx_setInterruptHandler@copyINTx$EX_InterruptHandler	PTR FTN()void  size(2) Largest target is 1
		 -> INT0_isr(), INT1_isr(), INT2_isr(), 

    MCAL_INTERRUPT_INTx_init@copyINTx$EX_InterruptHandler	PTR FTN()void  size(2) Largest target is 1
		 -> INT0_isr(), INT1_isr(), INT2_isr(), 

    RetValue_BTN	PTR unsigned char  size(2) Largest target is 0
		 -> NULL(NULL[0]), 

    RetValue_KeyPad	PTR unsigned char  size(2) Largest target is 0
		 -> NULL(NULL[0]), 

    S2003$buffer	PTR unsigned char  size(2) Largest target is 0

    S2003$source	PTR const unsigned char  size(2) Largest target is 0

    S40$EX_InterruptHandler	PTR FTN()void  size(2) Largest target is 1
		 -> INT0_isr(), INT1_isr(), INT2_isr(), 

    sp__memset	PTR void  size(2) Largest target is 0

    vfprintf$0	PTR struct _IO_FILE size(1) Largest target is 11
		 -> sprintf@f(COMRAM[11]), 

    vfprintf$1	PTR const unsigned char  size(1) Largest target is 3
		 -> STR_1(CODE[3]), STR_2(CODE[3]), STR_3(CODE[3]), 

    vfprintf$2	PTR PTR void  size(1) Largest target is 1
		 -> sprintf@ap(COMRAM[1]), 


Critical Paths under _main in COMRAM

    None.

Critical Paths under _MCAL_InterruptManager in COMRAM

    None.

Critical Paths under _main in BANK0

    None.

Critical Paths under _MCAL_InterruptManager in BANK0

    None.

Critical Paths under _main in BANK1

    None.

Critical Paths under _MCAL_InterruptManager in BANK1

    None.

Critical Paths under _main in BANK2

    None.

Critical Paths under _MCAL_InterruptManager in BANK2

    None.

Critical Paths under _main in BANK3

    None.

Critical Paths under _MCAL_InterruptManager in BANK3

    None.

Critical Paths under _main in BANK4

    None.

Critical Paths under _MCAL_InterruptManager in BANK4

    None.

Critical Paths under _main in BANK5

    None.

Critical Paths under _MCAL_InterruptManager in BANK5

    None.

Critical Paths under _main in BANK6

    None.

Critical Paths under _MCAL_InterruptManager in BANK6

    None.

Critical Paths under _main in BANK7

    None.

Critical Paths under _MCAL_InterruptManager in BANK7

    None.

Critical Paths under _main in BANK8

    None.

Critical Paths under _MCAL_InterruptManager in BANK8

    None.

Critical Paths under _main in BANK9

    None.

Critical Paths under _MCAL_InterruptManager in BANK9

    None.

Critical Paths under _main in BANK10

    None.

Critical Paths under _MCAL_InterruptManager in BANK10

    None.

Critical Paths under _main in BANK11

    None.

Critical Paths under _MCAL_InterruptManager in BANK11

    None.

Critical Paths under _main in BANK12

    None.

Critical Paths under _MCAL_InterruptManager in BANK12

    None.

Critical Paths under _main in BANK13

    None.

Critical Paths under _MCAL_InterruptManager in BANK13

    None.

Critical Paths under _main in BANK14

    None.

Critical Paths under _MCAL_InterruptManager in BANK14

    None.

Critical Paths under _main in BANK15

    None.

Critical Paths under _MCAL_InterruptManager in BANK15

    None.

Call Graph Tables:

 ---------------------------------------------------------------------------------
 (Depth) Function   	        Calls       Base Space   Used Autos Params    Refs
 ---------------------------------------------------------------------------------
 (0) _main                                                 0     0      0       0
 ---------------------------------------------------------------------------------
 Estimated maximum stack depth 0
 ---------------------------------------------------------------------------------
 (Depth) Function   	        Calls       Base Space   Used Autos Params    Refs
 ---------------------------------------------------------------------------------
 (1) _MCAL_InterruptManager                                2     2      0       0
                                              0 COMRAM     2     2      0
                           _INT0_ISR
                           _INT1_ISR
                           _INT2_ISR
 ---------------------------------------------------------------------------------
 (2) _INT2_ISR                                             0     0      0       0
                                NULL *
                           _INT0_isr *
                           _INT1_isr *
                           _INT2_isr *
 ---------------------------------------------------------------------------------
 (2) _INT1_ISR                                             0     0      0       0
                                NULL *
                           _INT0_isr *
                           _INT1_isr *
                           _INT2_isr *
 ---------------------------------------------------------------------------------
 (2) _INT0_ISR                                             0     0      0       0
                                NULL *
                           _INT0_isr *
                           _INT1_isr *
                           _INT2_isr *
 ---------------------------------------------------------------------------------
 (3) _INT2_isr                                             0     0      0       0
 ---------------------------------------------------------------------------------
 (3) _INT1_isr                                             0     0      0       0
 ---------------------------------------------------------------------------------
 (3) _INT0_isr                                             0     0      0       0
 ---------------------------------------------------------------------------------
 (3) NULL(Fake)                                            0     0      0       0
 ---------------------------------------------------------------------------------
 Estimated maximum stack depth 3
 ---------------------------------------------------------------------------------

 Call Graph Graphs:

 _main (ROOT)

 _MCAL_InterruptManager (ROOT)
   _INT0_ISR
     NULL(Fake) *
     _INT0_isr *
     _INT1_isr *
     _INT2_isr *
   _INT1_ISR
     NULL(Fake) *
     _INT0_isr *
     _INT1_isr *
     _INT2_isr *
   _INT2_ISR
     NULL(Fake) *
     _INT0_isr *
     _INT1_isr *
     _INT2_isr *

Address spaces:
Name               Size   Autos  Total    Usage
BIGRAM            3967      0       0      0.0%
BITBANK14          256      0       0      0.0%
BANK14             256      0       0      0.0%
BITBANK13          256      0       0      0.0%
BANK13             256      0       0      0.0%
BITBANK12          256      0       0      0.0%
BANK12             256      0       0      0.0%
BITBANK11          256      0       0      0.0%
BANK11             256      0       0      0.0%
BITBANK10          256      0       0      0.0%
BANK10             256      0       0      0.0%
BITBANK9           256      0       0      0.0%
BANK9              256      0       0      0.0%
BITBANK8           256      0       0      0.0%
BANK8              256      0       0      0.0%
BITBANK7           256      0       0      0.0%
BANK7              256      0       0      0.0%
BITBANK6           256      0       0      0.0%
BANK6              256      0       0      0.0%
BITBANK5           256      0       0      0.0%
BANK5              256      0       0      0.0%
BITBANK4           256      0       0      0.0%
BANK4              256      0       0      0.0%
BITBANK3           256      0       0      0.0%
BANK3              256      0       0      0.0%
BITBANK2           256      0       0      0.0%
BANK2              256      0       0      0.0%
BITBANK1           256      0       0      0.0%
BANK1              256      0       0      0.0%
BITBANK15          128      0       0      0.0%
BANK15             128      0       0      0.0%
BITBANK0           128      0       0      0.0%
BANK0              128      0       0      0.0%
BITCOMRAM          126      0       0      0.0%
COMRAM             126      2      78     61.9%
BITBIGSFRlh        102      0       0      0.0%
BITBIGSFRh          15      0       0      0.0%
BITBIGSFRll          4      0       0      0.0%
STACK                0      0       0      0.0%
DATA                 0      0      78      0.0%


Microchip Technology PIC18 Macro Assembler V2.50 build 20240725155939 
Symbol Table                                                                                   Sat Oct 26 04:02:29 2024

                           l35 1186                             l36 1186                            tosl 0FFD  
                          wreg 0FE8        ??_MCAL_InterruptManager 004D                           STR_1 1011  
                         _BTN1 0030                           _LATA 0F89                           _LATB 0F8A  
                         _LATC 0F8B                           _LATD 0F8C                           _LATE 0F8D  
                         i2l41 1190                           i2l44 118E                           i2l47 1192  
                         _Led1 0039                           _Led2 0038                           _Led3 0037  
                         _Seg1 002B                           _main 1186                           fsr1l 0FE1  
                         btemp 004F                           start 000E                   ___param_bank 0000  
             __end_of_INT0_ISR 1186               __end_of_INT1_ISR 1158               __end_of_INT2_ISR 112A  
             __end_of_INT0_isr 1192               __end_of_INT1_isr 1190               __end_of_INT2_isr 1194  
                        ?_main 004D                          i2l691 1156                          i2l819 1080  
                        i2l686 1184                          i2l696 1128                          _PORTA 0F80  
                        _PORTB 0F81                          _PORTC 0F82                          _PORTD 0F83  
                        _PORTE 0F84                          _TRISA 0F92                          _TRISB 0F93  
                        _TRISC 0F94                          _TRISD 0F95                          _TRISE 0F96  
                        pclath 0FFA                          pclatu 0FFB                          tablat 0FF5  
                        ttemp5 0050                          ttemp6 0053                          ttemp7 0057  
                        status 0FD8                          wtemp8 0050                 _objPin_motor_1 004C  
               _objPin_motor_2 004B                __initialization 10C6                   __end_of_main 118E  
                       ??_main 004F                  __activetblptr 0003                         i2l1742 1158  
                       i2l1750 112C                         i2l1744 115A                         i2l1752 113E  
                       i2l1746 116C                         i2l1754 10FC                         i2l1748 112A  
                       i2l1756 10FE                         i2l1758 1110                         i2l2840 104E  
                       i2l2832 1020                         i2l2842 105C                         i2l2834 102E  
                       i2l2844 1060                         i2l2836 103C                         i2l2846 106E  
                       i2l2838 1040                         i2l2848 107C                         _Motor1 0035  
                       _Motor2 0033                         clear_0 10EC                         isa$std 0001  
                 __pdataCOMRAM 0001        HALL_Relay_turnOFF@F3108 0044                   __mediumconst 0000  
                       tblptrh 0FF7                         tblptrl 0FF6                         tblptru 0FF8  
                   __accesstop 0080        __end_of__initialization 10F2                      ?_INT0_ISR 004D  
                    ?_INT1_ISR 004D                      ?_INT2_ISR 004D                      ?_INT0_isr 004D  
                    ?_INT1_isr 004D                      ?_INT2_isr 004D                  ___rparam_used 0001  
               __pcstackCOMRAM 004D  __end_of_MCAL_InterruptManager 108C                     ??_INT0_ISR 004D  
                   ??_INT1_ISR 004D                     ??_INT2_ISR 004D                     ??_INT0_isr 004D  
                   ??_INT1_isr 004D                     ??_INT2_isr 004D                        _EX_INT0 0025  
                      _EX_INT1 001F                        _EX_INT2 0019                        i2u40_40 1110  
                      i2u40_41 110C                        i2u41_48 1116                        i2u41_49 1128  
                      i2u36_40 116C                        i2u36_41 1168                        i2u37_48 1172  
                      i2u38_40 113E                        i2u37_49 1184                        i2u38_41 113A  
                      i2u39_48 1144                        i2u39_49 1156                        _KeyPad1 000B  
                      __Hparam 0000                        __Lparam 0000              __end_of_btn_Value 1011  
                    _LCD1_4Bit 0013                      _LCD1_8Bit 0001                   __psmallconst 1000  
                      __pcinit 10C6                        __ramtop 1000                        __ptext0 1186  
                      __ptext2 10FC                        __ptext3 112A                        __ptext4 1158  
                      __ptext5 118E                        __ptext6 1190                        __ptext7 1192  
               __pintcode_body 1016           end_of_initialization 10F2           HALL_Led_trunON@F3109 0049  
                      int_func 1016                        postdec1 0FE5                        postinc0 0FEE  
     HALL_Led_trunToggle@F3119 0047                  __pidataCOMRAM 108C            start_initialization 10C6  
              _RetValue_KeyPad 0042         HALL_Relay_turnON@F3103 0045                    __pbssCOMRAM 003A  
        _INT0_interruptHandler 003E          _MCAL_InterruptManager 0008                      __pintcode 0008  
                    _btn_Value 1001                    __smallconst 1000                   _RetValue_BTN 0040  
                     _INT0_ISR 1158                       _INT1_ISR 112A                       _INT2_ISR 10FC  
                     _INT0_isr 1190                       _INT1_isr 118E                       _INT2_isr 1192  
                     i2u160_40 103C                       i2u160_41 1038                       i2u161_40 104E  
                     i2u161_41 104A                       i2u162_40 105C                       i2u162_41 1058  
                     i2u163_40 106E                       i2u163_41 106A                       i2u164_40 107C  
                     i2u164_41 1078                       i2u159_40 102E                       i2u159_41 102A  
         HALL_Relay_init@F3098 0046                    _INTCON2bits 0FF1                    _INTCON3bits 0FF0  
                    copy_data0 10DA         ?_MCAL_InterruptManager 004D                       __Hrparam 0000  
                     __Lrparam 0000          _INT1_interruptHandler 003C                       isa$xinst 0000  
                     int$flags 004F          HALL_Led_trunOFF@F3114 0048                     _INTCONbits 0FF2  
                     intlevel2 0000             HALL_Led_init@F3104 004A          _INT2_interruptHandler 003A  
